Archive member included to satisfy reference by file (symbol)

build-optee/imx8mn/release/lib/libc.a(memcpy.o)
                              build-optee/imx8mn/release/bl31/imx_sip_handler.o (memcpy)
build-optee/imx8mn/release/lib/libc.a(memmove.o)
                              build-optee/imx8mn/release/bl31/xlat_tables_core.o (memmove)
build-optee/imx8mn/release/lib/libc.a(memset.o)
                              build-optee/imx8mn/release/bl31/runtime_svc.o (memset)
build-optee/imx8mn/release/lib/libc.a(printf.o)
                              build-optee/imx8mn/release/bl31/tf_log.o (vprintf)
build-optee/imx8mn/release/lib/libc.a(putchar.o)
                              build-optee/imx8mn/release/bl31/tf_log.o (putchar)
build-optee/imx8mn/release/lib/libc.a(strchr.o)
                              build-optee/imx8mn/release/bl31/imx_sip_handler.o (strchr)

Allocating common symbols
Common symbol       size              file

tzc380              0x10              build-optee/imx8mn/release/bl31/tzc380.o
mmu_cfg_params      0x18              build-optee/imx8mn/release/bl31/xlat_tables_context.o
rt_svc_descs_indices
                    0x80              build-optee/imx8mn/release/bl31/runtime_svc.o
dfs_lock            0x4               build-optee/imx8mn/release/bl31/dram.o
psci_cpu_pd_nodes   0x40              build-optee/imx8mn/release/bl31/psci_common.o
rdistif_base_addrs  0x20              build-optee/imx8mn/release/bl31/plat_imx8_gic.o
ipc_handle          0x8               build-optee/imx8mn/release/bl31/imx_sip_handler.o
psci_caps           0x4               build-optee/imx8mn/release/bl31/psci_setup.o
optee_vector_table  0x8               build-optee/imx8mn/release/bl31/opteed_main.o
psci_plat_pm_ops    0x8               build-optee/imx8mn/release/bl31/psci_common.o
imx_gicv3_ctx       0x2880            build-optee/imx8mn/release/bl31/gpc_common.o
opteed_rw           0x4               build-optee/imx8mn/release/bl31/opteed_main.o
percpu_data         0x100             build-optee/imx8mn/release/bl31/cpu_data_array.o
opteed_sp_context   0x9c0             build-optee/imx8mn/release/bl31/opteed_main.o
dram_info           0xa8              build-optee/imx8mn/release/bl31/dram.o
gicv3_driver_data   0x8               build-optee/imx8mn/release/bl31/gicv3_main.o
console_list        0x8               build-optee/imx8mn/release/bl31/multi_console.o
psci_spd_pm         0x8               build-optee/imx8mn/release/bl31/psci_common.o

Discarded input sections

 .text          0x0000000000000000        0x0 build-optee/imx8mn/release/bl31/build_message.o
 .data          0x0000000000000000        0x0 build-optee/imx8mn/release/bl31/build_message.o
 .bss           0x0000000000000000        0x0 build-optee/imx8mn/release/bl31/build_message.o
 .text          0x0000000000000000        0x0 build-optee/imx8mn/release/bl31/gpc_common.o
 .data          0x0000000000000000        0x0 build-optee/imx8mn/release/bl31/gpc_common.o
 .bss           0x0000000000000000        0x0 build-optee/imx8mn/release/bl31/gpc_common.o
 .text.imx_is_m4_enabled
                0x0000000000000000       0x18 build-optee/imx8mn/release/bl31/gpc_common.o
 .text.imx_set_cluster_standby
                0x0000000000000000       0x2c build-optee/imx8mn/release/bl31/gpc_common.o
 .eh_frame      0x0000000000000000      0x1b0 build-optee/imx8mn/release/bl31/gpc_common.o
 .text          0x0000000000000000        0x0 build-optee/imx8mn/release/bl31/hab.o
 .data          0x0000000000000000        0x0 build-optee/imx8mn/release/bl31/hab.o
 .bss           0x0000000000000000        0x0 build-optee/imx8mn/release/bl31/hab.o
 .eh_frame      0x0000000000000000       0x68 build-optee/imx8mn/release/bl31/hab.o
 .text          0x0000000000000000        0x0 build-optee/imx8mn/release/bl31/imx_aipstz.o
 .data          0x0000000000000000        0x0 build-optee/imx8mn/release/bl31/imx_aipstz.o
 .bss           0x0000000000000000        0x0 build-optee/imx8mn/release/bl31/imx_aipstz.o
 .eh_frame      0x0000000000000000       0x28 build-optee/imx8mn/release/bl31/imx_aipstz.o
 .text          0x0000000000000000        0x0 build-optee/imx8mn/release/bl31/imx_rdc.o
 .data          0x0000000000000000        0x0 build-optee/imx8mn/release/bl31/imx_rdc.o
 .bss           0x0000000000000000        0x0 build-optee/imx8mn/release/bl31/imx_rdc.o
 .eh_frame      0x0000000000000000       0x28 build-optee/imx8mn/release/bl31/imx_rdc.o
 .text          0x0000000000000000        0x0 build-optee/imx8mn/release/bl31/imx8m_caam.o
 .data          0x0000000000000000        0x0 build-optee/imx8mn/release/bl31/imx8m_caam.o
 .bss           0x0000000000000000        0x0 build-optee/imx8mn/release/bl31/imx8m_caam.o
 .eh_frame      0x0000000000000000       0x28 build-optee/imx8mn/release/bl31/imx8m_caam.o
 .text          0x0000000000000000        0x0 build-optee/imx8mn/release/bl31/imx8m_csu.o
 .data          0x0000000000000000        0x0 build-optee/imx8mn/release/bl31/imx8m_csu.o
 .bss           0x0000000000000000        0x0 build-optee/imx8mn/release/bl31/imx8m_csu.o
 .eh_frame      0x0000000000000000       0x28 build-optee/imx8mn/release/bl31/imx8m_csu.o
 .text          0x0000000000000000        0x0 build-optee/imx8mn/release/bl31/imx8m_psci_common.o
 .data          0x0000000000000000        0x0 build-optee/imx8mn/release/bl31/imx8m_psci_common.o
 .bss           0x0000000000000000        0x0 build-optee/imx8mn/release/bl31/imx8m_psci_common.o
 .eh_frame      0x0000000000000000      0x178 build-optee/imx8mn/release/bl31/imx8m_psci_common.o
 .text          0x0000000000000000        0x0 build-optee/imx8mn/release/bl31/imx8mn_bl31_setup.o
 .data          0x0000000000000000        0x0 build-optee/imx8mn/release/bl31/imx8mn_bl31_setup.o
 .bss           0x0000000000000000        0x0 build-optee/imx8mn/release/bl31/imx8mn_bl31_setup.o
 .eh_frame      0x0000000000000000       0xa8 build-optee/imx8mn/release/bl31/imx8mn_bl31_setup.o
 .text          0x0000000000000000        0x0 build-optee/imx8mn/release/bl31/imx8mn_psci.o
 .data          0x0000000000000000        0x0 build-optee/imx8mn/release/bl31/imx8mn_psci.o
 .bss           0x0000000000000000        0x0 build-optee/imx8mn/release/bl31/imx8mn_psci.o
 .eh_frame      0x0000000000000000       0x38 build-optee/imx8mn/release/bl31/imx8mn_psci.o
 .text          0x0000000000000000        0x0 build-optee/imx8mn/release/bl31/gpc.o
 .data          0x0000000000000000        0x0 build-optee/imx8mn/release/bl31/gpc.o
 .bss           0x0000000000000000        0x0 build-optee/imx8mn/release/bl31/gpc.o
 .eh_frame      0x0000000000000000       0x98 build-optee/imx8mn/release/bl31/gpc.o
 .text          0x0000000000000000        0x0 build-optee/imx8mn/release/bl31/imx8_topology.o
 .data          0x0000000000000000        0x0 build-optee/imx8mn/release/bl31/imx8_topology.o
 .bss           0x0000000000000000        0x0 build-optee/imx8mn/release/bl31/imx8_topology.o
 .eh_frame      0x0000000000000000       0x40 build-optee/imx8mn/release/bl31/imx8_topology.o
 .text          0x0000000000000000        0x0 build-optee/imx8mn/release/bl31/imx_sip_handler.o
 .data          0x0000000000000000        0x0 build-optee/imx8mn/release/bl31/imx_sip_handler.o
 .bss           0x0000000000000000        0x0 build-optee/imx8mn/release/bl31/imx_sip_handler.o
 .eh_frame      0x0000000000000000       0x38 build-optee/imx8mn/release/bl31/imx_sip_handler.o
 COMMON         0x0000000000000000        0x8 build-optee/imx8mn/release/bl31/imx_sip_handler.o
 .text          0x0000000000000000        0x0 build-optee/imx8mn/release/bl31/imx_sip_svc.o
 .data          0x0000000000000000        0x0 build-optee/imx8mn/release/bl31/imx_sip_svc.o
 .bss           0x0000000000000000        0x0 build-optee/imx8mn/release/bl31/imx_sip_svc.o
 .eh_frame      0x0000000000000000       0x78 build-optee/imx8mn/release/bl31/imx_sip_svc.o
 .text          0x0000000000000000        0x0 build-optee/imx8mn/release/bl31/tzc380.o
 .data          0x0000000000000000        0x0 build-optee/imx8mn/release/bl31/tzc380.o
 .bss           0x0000000000000000        0x0 build-optee/imx8mn/release/bl31/tzc380.o
 .text.tzc380_set_action
                0x0000000000000000       0x10 build-optee/imx8mn/release/bl31/tzc380.o
 .eh_frame      0x0000000000000000       0x50 build-optee/imx8mn/release/bl31/tzc380.o
 .text          0x0000000000000000        0x0 build-optee/imx8mn/release/bl31/delay_timer.o
 .data          0x0000000000000000        0x0 build-optee/imx8mn/release/bl31/delay_timer.o
 .bss           0x0000000000000000        0x0 build-optee/imx8mn/release/bl31/delay_timer.o
 .text.mdelay   0x0000000000000000        0xc build-optee/imx8mn/release/bl31/delay_timer.o
 .eh_frame      0x0000000000000000       0x68 build-optee/imx8mn/release/bl31/delay_timer.o
 .text          0x0000000000000000        0x0 build-optee/imx8mn/release/bl31/generic_delay_timer.o
 .data          0x0000000000000000        0x0 build-optee/imx8mn/release/bl31/generic_delay_timer.o
 .bss           0x0000000000000000        0x0 build-optee/imx8mn/release/bl31/generic_delay_timer.o
 .text.generic_delay_timer_init_args
                0x0000000000000000       0x24 build-optee/imx8mn/release/bl31/generic_delay_timer.o
 .eh_frame      0x0000000000000000       0x60 build-optee/imx8mn/release/bl31/generic_delay_timer.o
 .text          0x0000000000000000        0x0 build-optee/imx8mn/release/bl31/xlat_tables_arch.o
 .data          0x0000000000000000        0x0 build-optee/imx8mn/release/bl31/xlat_tables_arch.o
 .bss           0x0000000000000000        0x0 build-optee/imx8mn/release/bl31/xlat_tables_arch.o
 .text.xlat_arch_is_granule_size_supported
                0x0000000000000000       0x4c build-optee/imx8mn/release/bl31/xlat_tables_arch.o
 .text.xlat_arch_get_max_supported_granule_size
                0x0000000000000000       0x2c build-optee/imx8mn/release/bl31/xlat_tables_arch.o
 .text.is_mmu_enabled_ctx
                0x0000000000000000       0x38 build-optee/imx8mn/release/bl31/xlat_tables_arch.o
 .text.xlat_arch_tlbi_va
                0x0000000000000000       0x30 build-optee/imx8mn/release/bl31/xlat_tables_arch.o
 .text.xlat_arch_tlbi_va_sync
                0x0000000000000000        0xc build-optee/imx8mn/release/bl31/xlat_tables_arch.o
 .eh_frame      0x0000000000000000       0xe8 build-optee/imx8mn/release/bl31/xlat_tables_arch.o
 .text          0x0000000000000000        0x0 build-optee/imx8mn/release/bl31/xlat_tables_context.o
 .data          0x0000000000000000        0x0 build-optee/imx8mn/release/bl31/xlat_tables_context.o
 .bss           0x0000000000000000        0x0 build-optee/imx8mn/release/bl31/xlat_tables_context.o
 .text.mmap_add_region_alloc_va
                0x0000000000000000       0x4c build-optee/imx8mn/release/bl31/xlat_tables_context.o
 .text.mmap_add_alloc_va
                0x0000000000000000       0x44 build-optee/imx8mn/release/bl31/xlat_tables_context.o
 .text.xlat_get_mem_attributes
                0x0000000000000000       0x14 build-optee/imx8mn/release/bl31/xlat_tables_context.o
 .text.xlat_change_mem_attributes
                0x0000000000000000       0x1c build-optee/imx8mn/release/bl31/xlat_tables_context.o
 .text.enable_mmu_el1
                0x0000000000000000       0x48 build-optee/imx8mn/release/bl31/xlat_tables_context.o
 .text.enable_mmu_el2
                0x0000000000000000       0x48 build-optee/imx8mn/release/bl31/xlat_tables_context.o
 .eh_frame      0x0000000000000000      0x148 build-optee/imx8mn/release/bl31/xlat_tables_context.o
 .text          0x0000000000000000        0x0 build-optee/imx8mn/release/bl31/xlat_tables_core.o
 .data          0x0000000000000000        0x0 build-optee/imx8mn/release/bl31/xlat_tables_core.o
 .bss           0x0000000000000000        0x0 build-optee/imx8mn/release/bl31/xlat_tables_core.o
 .text.mmap_add_region_alloc_va_ctx
                0x0000000000000000       0x90 build-optee/imx8mn/release/bl31/xlat_tables_core.o
 .eh_frame      0x0000000000000000      0x198 build-optee/imx8mn/release/bl31/xlat_tables_core.o
 .text          0x0000000000000000        0x0 build-optee/imx8mn/release/bl31/xlat_tables_utils.o
 .data          0x0000000000000000        0x0 build-optee/imx8mn/release/bl31/xlat_tables_utils.o
 .bss           0x0000000000000000        0x0 build-optee/imx8mn/release/bl31/xlat_tables_utils.o
 .text.find_xlat_table_entry
                0x0000000000000000       0xb4 build-optee/imx8mn/release/bl31/xlat_tables_utils.o
 .text.xlat_get_mem_attributes_internal
                0x0000000000000000      0x100 build-optee/imx8mn/release/bl31/xlat_tables_utils.o
 .text.xlat_get_mem_attributes_ctx
                0x0000000000000000       0x10 build-optee/imx8mn/release/bl31/xlat_tables_utils.o
 .text.xlat_change_mem_attributes_ctx
                0x0000000000000000      0x194 build-optee/imx8mn/release/bl31/xlat_tables_utils.o
 .eh_frame      0x0000000000000000       0xf0 build-optee/imx8mn/release/bl31/xlat_tables_utils.o
 .text          0x0000000000000000        0x0 build-optee/imx8mn/release/bl31/dram.o
 .data          0x0000000000000000        0x0 build-optee/imx8mn/release/bl31/dram.o
 .bss           0x0000000000000000        0x0 build-optee/imx8mn/release/bl31/dram.o
 .eh_frame      0x0000000000000000      0x148 build-optee/imx8mn/release/bl31/dram.o
 .text          0x0000000000000000        0x0 build-optee/imx8mn/release/bl31/clock.o
 .data          0x0000000000000000        0x0 build-optee/imx8mn/release/bl31/clock.o
 .bss           0x0000000000000000        0x0 build-optee/imx8mn/release/bl31/clock.o
 .text.ddr_pll_bypass_100mts
                0x0000000000000000       0x48 build-optee/imx8mn/release/bl31/clock.o
 .text.ddr_pll_bypass_400mts
                0x0000000000000000       0x48 build-optee/imx8mn/release/bl31/clock.o
 .text.ddr_pll_unbypass
                0x0000000000000000       0x34 build-optee/imx8mn/release/bl31/clock.o
 .eh_frame      0x0000000000000000       0x78 build-optee/imx8mn/release/bl31/clock.o
 .text          0x0000000000000000        0x0 build-optee/imx8mn/release/bl31/dram_retention.o
 .data          0x0000000000000000        0x0 build-optee/imx8mn/release/bl31/dram_retention.o
 .bss           0x0000000000000000        0x0 build-optee/imx8mn/release/bl31/dram_retention.o
 .eh_frame      0x0000000000000000       0x50 build-optee/imx8mn/release/bl31/dram_retention.o
 .text          0x0000000000000000        0x0 build-optee/imx8mn/release/bl31/ddr4_dvfs.o
 .data          0x0000000000000000        0x0 build-optee/imx8mn/release/bl31/ddr4_dvfs.o
 .bss           0x0000000000000000        0x0 build-optee/imx8mn/release/bl31/ddr4_dvfs.o
 .eh_frame      0x0000000000000000       0x98 build-optee/imx8mn/release/bl31/ddr4_dvfs.o
 .text          0x0000000000000000        0x0 build-optee/imx8mn/release/bl31/lpddr4_dvfs.o
 .data          0x0000000000000000        0x0 build-optee/imx8mn/release/bl31/lpddr4_dvfs.o
 .bss           0x0000000000000000        0x0 build-optee/imx8mn/release/bl31/lpddr4_dvfs.o
 .eh_frame      0x0000000000000000       0x50 build-optee/imx8mn/release/bl31/lpddr4_dvfs.o
 .text          0x0000000000000000        0x0 build-optee/imx8mn/release/bl31/gicv3_helpers.o
 .data          0x0000000000000000        0x0 build-optee/imx8mn/release/bl31/gicv3_helpers.o
 .bss           0x0000000000000000        0x0 build-optee/imx8mn/release/bl31/gicv3_helpers.o
 .text.gicd_get_igrpmodr
                0x0000000000000000       0x1c build-optee/imx8mn/release/bl31/gicv3_helpers.o
 .text.gicd_set_igrpmodr
                0x0000000000000000       0x24 build-optee/imx8mn/release/bl31/gicv3_helpers.o
 .text.gicd_clr_igrpmodr
                0x0000000000000000       0x24 build-optee/imx8mn/release/bl31/gicv3_helpers.o
 .text.gicr_get_igroupr0
                0x0000000000000000       0x18 build-optee/imx8mn/release/bl31/gicv3_helpers.o
 .text.gicr_set_igroupr0
                0x0000000000000000       0x20 build-optee/imx8mn/release/bl31/gicv3_helpers.o
 .text.gicr_clr_igroupr0
                0x0000000000000000       0x20 build-optee/imx8mn/release/bl31/gicv3_helpers.o
 .text.gicr_get_igrpmodr0
                0x0000000000000000       0x18 build-optee/imx8mn/release/bl31/gicv3_helpers.o
 .text.gicr_set_igrpmodr0
                0x0000000000000000       0x20 build-optee/imx8mn/release/bl31/gicv3_helpers.o
 .text.gicr_clr_igrpmodr0
                0x0000000000000000       0x20 build-optee/imx8mn/release/bl31/gicv3_helpers.o
 .text.gicr_set_isenabler0
                0x0000000000000000       0x18 build-optee/imx8mn/release/bl31/gicv3_helpers.o
 .text.gicr_set_icenabler0
                0x0000000000000000       0x18 build-optee/imx8mn/release/bl31/gicv3_helpers.o
 .text.gicr_get_isactiver0
                0x0000000000000000       0x18 build-optee/imx8mn/release/bl31/gicv3_helpers.o
 .text.gicr_set_icpendr0
                0x0000000000000000       0x18 build-optee/imx8mn/release/bl31/gicv3_helpers.o
 .text.gicr_set_ispendr0
                0x0000000000000000       0x18 build-optee/imx8mn/release/bl31/gicv3_helpers.o
 .text.gicr_set_ipriorityr
                0x0000000000000000       0x14 build-optee/imx8mn/release/bl31/gicv3_helpers.o
 .text.gicr_set_icfgr0
                0x0000000000000000       0x30 build-optee/imx8mn/release/bl31/gicv3_helpers.o
 .text.gicr_set_icfgr1
                0x0000000000000000       0x30 build-optee/imx8mn/release/bl31/gicv3_helpers.o
 .eh_frame      0x0000000000000000      0x2b0 build-optee/imx8mn/release/bl31/gicv3_helpers.o
 .text          0x0000000000000000        0x0 build-optee/imx8mn/release/bl31/arm_gicv3_common.o
 .data          0x0000000000000000        0x0 build-optee/imx8mn/release/bl31/arm_gicv3_common.o
 .bss           0x0000000000000000        0x0 build-optee/imx8mn/release/bl31/arm_gicv3_common.o
 .eh_frame      0x0000000000000000       0x40 build-optee/imx8mn/release/bl31/arm_gicv3_common.o
 .text          0x0000000000000000        0x0 build-optee/imx8mn/release/bl31/gic500.o
 .data          0x0000000000000000        0x0 build-optee/imx8mn/release/bl31/gic500.o
 .bss           0x0000000000000000        0x0 build-optee/imx8mn/release/bl31/gic500.o
 .eh_frame      0x0000000000000000       0x40 build-optee/imx8mn/release/bl31/gic500.o
 .text          0x0000000000000000        0x0 build-optee/imx8mn/release/bl31/gicv3_main.o
 .data          0x0000000000000000        0x0 build-optee/imx8mn/release/bl31/gicv3_main.o
 .bss           0x0000000000000000        0x0 build-optee/imx8mn/release/bl31/gicv3_main.o
 .text.gicv3_rdistif_off
                0x0000000000000000        0x4 build-optee/imx8mn/release/bl31/gicv3_main.o
 .text.gicv3_get_pending_interrupt_id
                0x0000000000000000       0x24 build-optee/imx8mn/release/bl31/gicv3_main.o
 .text.gicv3_get_interrupt_type
                0x0000000000000000       0xa8 build-optee/imx8mn/release/bl31/gicv3_main.o
 .text.gicv3_its_save_disable
                0x0000000000000000       0x50 build-optee/imx8mn/release/bl31/gicv3_main.o
 .text.gicv3_its_restore
                0x0000000000000000       0x40 build-optee/imx8mn/release/bl31/gicv3_main.o
 .text.gicv3_get_running_priority
                0x0000000000000000        0x8 build-optee/imx8mn/release/bl31/gicv3_main.o
 .text.gicv3_get_interrupt_active
                0x0000000000000000       0x34 build-optee/imx8mn/release/bl31/gicv3_main.o
 .text.gicv3_enable_interrupt
                0x0000000000000000       0x3c build-optee/imx8mn/release/bl31/gicv3_main.o
 .text.gicv3_disable_interrupt
                0x0000000000000000       0x88 build-optee/imx8mn/release/bl31/gicv3_main.o
 .text.gicv3_set_interrupt_priority
                0x0000000000000000       0x34 build-optee/imx8mn/release/bl31/gicv3_main.o
 .text.gicv3_set_interrupt_type
                0x0000000000000000      0x17c build-optee/imx8mn/release/bl31/gicv3_main.o
 .rodata.gicv3_set_spi_routing.str1.8
                0x0000000000000000       0x33 build-optee/imx8mn/release/bl31/gicv3_main.o
 .text.gicv3_set_spi_routing
                0x0000000000000000       0x54 build-optee/imx8mn/release/bl31/gicv3_main.o
 .text.gicv3_clear_interrupt_pending
                0x0000000000000000       0x54 build-optee/imx8mn/release/bl31/gicv3_main.o
 .text.gicv3_set_interrupt_pending
                0x0000000000000000       0x3c build-optee/imx8mn/release/bl31/gicv3_main.o
 .text.gicv3_set_pmr
                0x0000000000000000       0x14 build-optee/imx8mn/release/bl31/gicv3_main.o
 .text.gicv3_rdistif_probe
                0x0000000000000000       0xe4 build-optee/imx8mn/release/bl31/gicv3_main.o
 .bss.gic_lock  0x0000000000000000        0x4 build-optee/imx8mn/release/bl31/gicv3_main.o
 .eh_frame      0x0000000000000000      0x3b8 build-optee/imx8mn/release/bl31/gicv3_main.o
 .text          0x0000000000000000        0x0 build-optee/imx8mn/release/bl31/gic_common.o
 .data          0x0000000000000000        0x0 build-optee/imx8mn/release/bl31/gic_common.o
 .bss           0x0000000000000000        0x0 build-optee/imx8mn/release/bl31/gic_common.o
 .text.gicd_read_icenabler
                0x0000000000000000       0x14 build-optee/imx8mn/release/bl31/gic_common.o
 .text.gicd_read_icpendr
                0x0000000000000000       0x14 build-optee/imx8mn/release/bl31/gic_common.o
 .text.gicd_read_icactiver
                0x0000000000000000       0x14 build-optee/imx8mn/release/bl31/gic_common.o
 .text.gicd_write_icenabler
                0x0000000000000000       0x14 build-optee/imx8mn/release/bl31/gic_common.o
 .text.gicd_write_icpendr
                0x0000000000000000       0x14 build-optee/imx8mn/release/bl31/gic_common.o
 .text.gicd_write_icactiver
                0x0000000000000000       0x14 build-optee/imx8mn/release/bl31/gic_common.o
 .text.gicd_get_igroupr
                0x0000000000000000       0x1c build-optee/imx8mn/release/bl31/gic_common.o
 .text.gicd_set_igroupr
                0x0000000000000000       0x24 build-optee/imx8mn/release/bl31/gic_common.o
 .text.gicd_set_icenabler
                0x0000000000000000       0x1c build-optee/imx8mn/release/bl31/gic_common.o
 .text.gicd_set_ispendr
                0x0000000000000000       0x1c build-optee/imx8mn/release/bl31/gic_common.o
 .text.gicd_set_icpendr
                0x0000000000000000       0x1c build-optee/imx8mn/release/bl31/gic_common.o
 .text.gicd_get_isactiver
                0x0000000000000000       0x1c build-optee/imx8mn/release/bl31/gic_common.o
 .text.gicd_set_isactiver
                0x0000000000000000       0x1c build-optee/imx8mn/release/bl31/gic_common.o
 .text.gicd_set_icactiver
                0x0000000000000000       0x1c build-optee/imx8mn/release/bl31/gic_common.o
 .eh_frame      0x0000000000000000      0x298 build-optee/imx8mn/release/bl31/gic_common.o
 .text          0x0000000000000000        0x0 build-optee/imx8mn/release/bl31/plat_gicv3.o
 .data          0x0000000000000000        0x0 build-optee/imx8mn/release/bl31/plat_gicv3.o
 .bss           0x0000000000000000        0x0 build-optee/imx8mn/release/bl31/plat_gicv3.o
 .text.plat_ic_get_pending_interrupt_id
                0x0000000000000000       0x20 build-optee/imx8mn/release/bl31/plat_gicv3.o
 .text.plat_ic_get_interrupt_type
                0x0000000000000000       0x28 build-optee/imx8mn/release/bl31/plat_gicv3.o
 .text.plat_ic_get_running_priority
                0x0000000000000000        0x4 build-optee/imx8mn/release/bl31/plat_gicv3.o
 .text.plat_ic_is_spi
                0x0000000000000000       0x10 build-optee/imx8mn/release/bl31/plat_gicv3.o
 .text.plat_ic_is_ppi
                0x0000000000000000       0x10 build-optee/imx8mn/release/bl31/plat_gicv3.o
 .text.plat_ic_is_sgi
                0x0000000000000000        0xc build-optee/imx8mn/release/bl31/plat_gicv3.o
 .text.plat_ic_get_interrupt_active
                0x0000000000000000       0x28 build-optee/imx8mn/release/bl31/plat_gicv3.o
 .text.plat_ic_enable_interrupt
                0x0000000000000000       0x28 build-optee/imx8mn/release/bl31/plat_gicv3.o
 .text.plat_ic_disable_interrupt
                0x0000000000000000       0x28 build-optee/imx8mn/release/bl31/plat_gicv3.o
 .text.plat_ic_set_interrupt_priority
                0x0000000000000000       0x30 build-optee/imx8mn/release/bl31/plat_gicv3.o
 .text.plat_ic_has_interrupt_type
                0x0000000000000000        0x8 build-optee/imx8mn/release/bl31/plat_gicv3.o
 .text.plat_ic_set_interrupt_type
                0x0000000000000000       0x30 build-optee/imx8mn/release/bl31/plat_gicv3.o
 .text.plat_ic_set_spi_routing
                0x0000000000000000        0xc build-optee/imx8mn/release/bl31/plat_gicv3.o
 .text.plat_ic_set_interrupt_pending
                0x0000000000000000       0x28 build-optee/imx8mn/release/bl31/plat_gicv3.o
 .text.plat_ic_clear_interrupt_pending
                0x0000000000000000       0x28 build-optee/imx8mn/release/bl31/plat_gicv3.o
 .text.plat_ic_set_priority_mask
                0x0000000000000000        0x4 build-optee/imx8mn/release/bl31/plat_gicv3.o
 .text.plat_ic_get_interrupt_id
                0x0000000000000000       0x14 build-optee/imx8mn/release/bl31/plat_gicv3.o
 .eh_frame      0x0000000000000000      0x270 build-optee/imx8mn/release/bl31/plat_gicv3.o
 .text          0x0000000000000000        0x0 build-optee/imx8mn/release/bl31/plat_psci_common.o
 .data          0x0000000000000000        0x0 build-optee/imx8mn/release/bl31/plat_psci_common.o
 .bss           0x0000000000000000        0x0 build-optee/imx8mn/release/bl31/plat_psci_common.o
 .eh_frame      0x0000000000000000       0x28 build-optee/imx8mn/release/bl31/plat_psci_common.o
 .text          0x0000000000000000        0x0 build-optee/imx8mn/release/bl31/plat_imx8_gic.o
 .data          0x0000000000000000        0x0 build-optee/imx8mn/release/bl31/plat_imx8_gic.o
 .bss           0x0000000000000000        0x0 build-optee/imx8mn/release/bl31/plat_imx8_gic.o
 .eh_frame      0x0000000000000000      0x110 build-optee/imx8mn/release/bl31/plat_imx8_gic.o
 .text          0x0000000000000000        0x0 build-optee/imx8mn/release/bl31/bl31_main.o
 .data          0x0000000000000000        0x0 build-optee/imx8mn/release/bl31/bl31_main.o
 .bss           0x0000000000000000        0x0 build-optee/imx8mn/release/bl31/bl31_main.o
 .text.bl31_lib_init
                0x0000000000000000        0x4 build-optee/imx8mn/release/bl31/bl31_main.o
 .text.bl31_set_next_image_type
                0x0000000000000000        0xc build-optee/imx8mn/release/bl31/bl31_main.o
 .text.bl31_get_next_image_type
                0x0000000000000000        0xc build-optee/imx8mn/release/bl31/bl31_main.o
 .eh_frame      0x0000000000000000       0xe8 build-optee/imx8mn/release/bl31/bl31_main.o
 .text          0x0000000000000000        0x0 build-optee/imx8mn/release/bl31/interrupt_mgmt.o
 .data          0x0000000000000000        0x0 build-optee/imx8mn/release/bl31/interrupt_mgmt.o
 .bss           0x0000000000000000        0x0 build-optee/imx8mn/release/bl31/interrupt_mgmt.o
 .text.disable_intr_rm_local
                0x0000000000000000       0x34 build-optee/imx8mn/release/bl31/interrupt_mgmt.o
 .text.enable_intr_rm_local
                0x0000000000000000       0x54 build-optee/imx8mn/release/bl31/interrupt_mgmt.o
 .eh_frame      0x0000000000000000      0x138 build-optee/imx8mn/release/bl31/interrupt_mgmt.o
 .text          0x0000000000000000        0x0 build-optee/imx8mn/release/bl31/bl31_context_mgmt.o
 .data          0x0000000000000000        0x0 build-optee/imx8mn/release/bl31/bl31_context_mgmt.o
 .bss           0x0000000000000000        0x0 build-optee/imx8mn/release/bl31/bl31_context_mgmt.o
 .eh_frame      0x0000000000000000       0x88 build-optee/imx8mn/release/bl31/bl31_context_mgmt.o
 .text          0x0000000000000000        0x0 build-optee/imx8mn/release/bl31/runtime_svc.o
 .data          0x0000000000000000        0x0 build-optee/imx8mn/release/bl31/runtime_svc.o
 .bss           0x0000000000000000        0x0 build-optee/imx8mn/release/bl31/runtime_svc.o
 .text.handle_runtime_svc
                0x0000000000000000       0x74 build-optee/imx8mn/release/bl31/runtime_svc.o
 .eh_frame      0x0000000000000000       0x70 build-optee/imx8mn/release/bl31/runtime_svc.o
 .text          0x0000000000000000        0x0 build-optee/imx8mn/release/bl31/arm_arch_svc_setup.o
 .data          0x0000000000000000        0x0 build-optee/imx8mn/release/bl31/arm_arch_svc_setup.o
 .bss           0x0000000000000000        0x0 build-optee/imx8mn/release/bl31/arm_arch_svc_setup.o
 .eh_frame      0x0000000000000000       0x38 build-optee/imx8mn/release/bl31/arm_arch_svc_setup.o
 .text          0x0000000000000000        0x0 build-optee/imx8mn/release/bl31/std_svc_setup.o
 .data          0x0000000000000000        0x0 build-optee/imx8mn/release/bl31/std_svc_setup.o
 .bss           0x0000000000000000        0x0 build-optee/imx8mn/release/bl31/std_svc_setup.o
 .eh_frame      0x0000000000000000       0x70 build-optee/imx8mn/release/bl31/std_svc_setup.o
 .text          0x0000000000000000        0x0 build-optee/imx8mn/release/bl31/cpu_data_array.o
 .data          0x0000000000000000        0x0 build-optee/imx8mn/release/bl31/cpu_data_array.o
 .bss           0x0000000000000000        0x0 build-optee/imx8mn/release/bl31/cpu_data_array.o
 .text          0x0000000000000000        0x0 build-optee/imx8mn/release/bl31/context_mgmt.o
 .data          0x0000000000000000        0x0 build-optee/imx8mn/release/bl31/context_mgmt.o
 .bss           0x0000000000000000        0x0 build-optee/imx8mn/release/bl31/context_mgmt.o
 .text.cm_set_elr_spsr_el3
                0x0000000000000000       0x28 build-optee/imx8mn/release/bl31/context_mgmt.o
 .text.cm_get_scr_el3
                0x0000000000000000       0x18 build-optee/imx8mn/release/bl31/context_mgmt.o
 .eh_frame      0x0000000000000000      0x1d8 build-optee/imx8mn/release/bl31/context_mgmt.o
 .text          0x0000000000000000        0x0 build-optee/imx8mn/release/bl31/errata_report.o
 .data          0x0000000000000000        0x0 build-optee/imx8mn/release/bl31/errata_report.o
 .bss           0x0000000000000000        0x0 build-optee/imx8mn/release/bl31/errata_report.o
 .text.errata_needs_reporting
                0x0000000000000000       0x68 build-optee/imx8mn/release/bl31/errata_report.o
 .text.errata_print_msg
                0x0000000000000000        0x4 build-optee/imx8mn/release/bl31/errata_report.o
 .debug_info    0x0000000000000000      0x3e3 build-optee/imx8mn/release/bl31/errata_report.o
 .debug_abbrev  0x0000000000000000      0x204 build-optee/imx8mn/release/bl31/errata_report.o
 .debug_loc     0x0000000000000000      0x138 build-optee/imx8mn/release/bl31/errata_report.o
 .debug_aranges
                0x0000000000000000       0x40 build-optee/imx8mn/release/bl31/errata_report.o
 .debug_ranges  0x0000000000000000       0x30 build-optee/imx8mn/release/bl31/errata_report.o
 .debug_line    0x0000000000000000      0x15b build-optee/imx8mn/release/bl31/errata_report.o
 .debug_str     0x0000000000000000      0x43a build-optee/imx8mn/release/bl31/errata_report.o
 .comment       0x0000000000000000       0x12 build-optee/imx8mn/release/bl31/errata_report.o
 .note.GNU-stack
                0x0000000000000000        0x0 build-optee/imx8mn/release/bl31/errata_report.o
 .eh_frame      0x0000000000000000       0x60 build-optee/imx8mn/release/bl31/errata_report.o
 .text          0x0000000000000000        0x0 build-optee/imx8mn/release/bl31/psci_off.o
 .data          0x0000000000000000        0x0 build-optee/imx8mn/release/bl31/psci_off.o
 .bss           0x0000000000000000        0x0 build-optee/imx8mn/release/bl31/psci_off.o
 .eh_frame      0x0000000000000000       0x40 build-optee/imx8mn/release/bl31/psci_off.o
 .text          0x0000000000000000        0x0 build-optee/imx8mn/release/bl31/psci_on.o
 .data          0x0000000000000000        0x0 build-optee/imx8mn/release/bl31/psci_on.o
 .bss           0x0000000000000000        0x0 build-optee/imx8mn/release/bl31/psci_on.o
 .eh_frame      0x0000000000000000       0xa0 build-optee/imx8mn/release/bl31/psci_on.o
 .text          0x0000000000000000        0x0 build-optee/imx8mn/release/bl31/psci_suspend.o
 .data          0x0000000000000000        0x0 build-optee/imx8mn/release/bl31/psci_suspend.o
 .bss           0x0000000000000000        0x0 build-optee/imx8mn/release/bl31/psci_suspend.o
 .eh_frame      0x0000000000000000       0x80 build-optee/imx8mn/release/bl31/psci_suspend.o
 .text          0x0000000000000000        0x0 build-optee/imx8mn/release/bl31/psci_common.o
 .data          0x0000000000000000        0x0 build-optee/imx8mn/release/bl31/psci_common.o
 .bss           0x0000000000000000        0x0 build-optee/imx8mn/release/bl31/psci_common.o
 .text.psci_validate_suspend_req
                0x0000000000000000       0xd4 build-optee/imx8mn/release/bl31/psci_common.o
 .text.psci_secondaries_brought_up
                0x0000000000000000       0x30 build-optee/imx8mn/release/bl31/psci_common.o
 .eh_frame      0x0000000000000000      0x2f0 build-optee/imx8mn/release/bl31/psci_common.o
 .text          0x0000000000000000        0x0 build-optee/imx8mn/release/bl31/psci_main.o
 .data          0x0000000000000000        0x0 build-optee/imx8mn/release/bl31/psci_main.o
 .bss           0x0000000000000000        0x0 build-optee/imx8mn/release/bl31/psci_main.o
 .text.psci_version
                0x0000000000000000        0x8 build-optee/imx8mn/release/bl31/psci_main.o
 .text.psci_cpu_off
                0x0000000000000000        0x8 build-optee/imx8mn/release/bl31/psci_main.o
 .text.psci_migrate_info_type
                0x0000000000000000       0x18 build-optee/imx8mn/release/bl31/psci_main.o
 .text.psci_migrate_info_up_cpu
                0x0000000000000000       0x28 build-optee/imx8mn/release/bl31/psci_main.o
 .eh_frame      0x0000000000000000      0x208 build-optee/imx8mn/release/bl31/psci_main.o
 .text          0x0000000000000000        0x0 build-optee/imx8mn/release/bl31/psci_setup.o
 .data          0x0000000000000000        0x0 build-optee/imx8mn/release/bl31/psci_setup.o
 .bss           0x0000000000000000        0x0 build-optee/imx8mn/release/bl31/psci_setup.o
 .text.psci_prepare_next_non_secure_ctx
                0x0000000000000000       0x18 build-optee/imx8mn/release/bl31/psci_setup.o
 .eh_frame      0x0000000000000000       0x98 build-optee/imx8mn/release/bl31/psci_setup.o
 .text          0x0000000000000000        0x0 build-optee/imx8mn/release/bl31/psci_system_off.o
 .data          0x0000000000000000        0x0 build-optee/imx8mn/release/bl31/psci_system_off.o
 .bss           0x0000000000000000        0x0 build-optee/imx8mn/release/bl31/psci_system_off.o
 .eh_frame      0x0000000000000000       0x78 build-optee/imx8mn/release/bl31/psci_system_off.o
 .text          0x0000000000000000        0x0 build-optee/imx8mn/release/bl31/psci_mem_protect.o
 .data          0x0000000000000000        0x0 build-optee/imx8mn/release/bl31/psci_mem_protect.o
 .bss           0x0000000000000000        0x0 build-optee/imx8mn/release/bl31/psci_mem_protect.o
 .eh_frame      0x0000000000000000       0x70 build-optee/imx8mn/release/bl31/psci_mem_protect.o
 .text          0x0000000000000000        0x0 build-optee/imx8mn/release/bl31/bakery_lock_coherent.o
 .data          0x0000000000000000        0x0 build-optee/imx8mn/release/bl31/bakery_lock_coherent.o
 .bss           0x0000000000000000        0x0 build-optee/imx8mn/release/bl31/bakery_lock_coherent.o
 .eh_frame      0x0000000000000000       0x60 build-optee/imx8mn/release/bl31/bakery_lock_coherent.o
 .text          0x0000000000000000        0x0 build-optee/imx8mn/release/bl31/spe.o
 .data          0x0000000000000000        0x0 build-optee/imx8mn/release/bl31/spe.o
 .bss           0x0000000000000000        0x0 build-optee/imx8mn/release/bl31/spe.o
 .text.spe_supported
                0x0000000000000000       0x14 build-optee/imx8mn/release/bl31/spe.o
 .text.spe_disable
                0x0000000000000000       0x2c build-optee/imx8mn/release/bl31/spe.o
 .eh_frame      0x0000000000000000       0x68 build-optee/imx8mn/release/bl31/spe.o
 .text          0x0000000000000000        0x0 build-optee/imx8mn/release/bl31/sve.o
 .data          0x0000000000000000        0x0 build-optee/imx8mn/release/bl31/sve.o
 .bss           0x0000000000000000        0x0 build-optee/imx8mn/release/bl31/sve.o
 .text.sve_supported
                0x0000000000000000       0x14 build-optee/imx8mn/release/bl31/sve.o
 .eh_frame      0x0000000000000000       0x68 build-optee/imx8mn/release/bl31/sve.o
 .text          0x0000000000000000        0x0 build-optee/imx8mn/release/bl31/opteed_common.o
 .data          0x0000000000000000        0x0 build-optee/imx8mn/release/bl31/opteed_common.o
 .bss           0x0000000000000000        0x0 build-optee/imx8mn/release/bl31/opteed_common.o
 .eh_frame      0x0000000000000000       0x90 build-optee/imx8mn/release/bl31/opteed_common.o
 .text          0x0000000000000000        0x0 build-optee/imx8mn/release/bl31/opteed_main.o
 .data          0x0000000000000000        0x0 build-optee/imx8mn/release/bl31/opteed_main.o
 .bss           0x0000000000000000        0x0 build-optee/imx8mn/release/bl31/opteed_main.o
 .eh_frame      0x0000000000000000       0xf8 build-optee/imx8mn/release/bl31/opteed_main.o
 .text          0x0000000000000000        0x0 build-optee/imx8mn/release/bl31/opteed_pm.o
 .data          0x0000000000000000        0x0 build-optee/imx8mn/release/bl31/opteed_pm.o
 .bss           0x0000000000000000        0x0 build-optee/imx8mn/release/bl31/opteed_pm.o
 .eh_frame      0x0000000000000000      0x138 build-optee/imx8mn/release/bl31/opteed_pm.o
 .text          0x0000000000000000        0x0 build-optee/imx8mn/release/bl31/bl_common.o
 .data          0x0000000000000000        0x0 build-optee/imx8mn/release/bl31/bl_common.o
 .bss           0x0000000000000000        0x0 build-optee/imx8mn/release/bl31/bl_common.o
 .text.page_align
                0x0000000000000000       0x1c build-optee/imx8mn/release/bl31/bl_common.o
 .text.load_auth_image
                0x0000000000000000      0x118 build-optee/imx8mn/release/bl31/bl_common.o
 .eh_frame      0x0000000000000000       0x78 build-optee/imx8mn/release/bl31/bl_common.o
 .text          0x0000000000000000        0x0 build-optee/imx8mn/release/bl31/tf_log.o
 .data          0x0000000000000000        0x0 build-optee/imx8mn/release/bl31/tf_log.o
 .bss           0x0000000000000000        0x0 build-optee/imx8mn/release/bl31/tf_log.o
 .text.tf_log_set_max_level
                0x0000000000000000       0x14 build-optee/imx8mn/release/bl31/tf_log.o
 .eh_frame      0x0000000000000000       0x58 build-optee/imx8mn/release/bl31/tf_log.o
 .text          0x0000000000000000        0x0 build-optee/imx8mn/release/bl31/multi_console.o
 .data          0x0000000000000000        0x0 build-optee/imx8mn/release/bl31/multi_console.o
 .bss           0x0000000000000000        0x0 build-optee/imx8mn/release/bl31/multi_console.o
 .text.console_unregister
                0x0000000000000000       0x48 build-optee/imx8mn/release/bl31/multi_console.o
 .text.console_is_registered
                0x0000000000000000       0x38 build-optee/imx8mn/release/bl31/multi_console.o
 .text.console_getc
                0x0000000000000000       0x8c build-optee/imx8mn/release/bl31/multi_console.o
 .eh_frame      0x0000000000000000      0x120 build-optee/imx8mn/release/bl31/multi_console.o
 .text          0x0000000000000000        0x0 build-optee/imx8mn/release/bl31/plat_bl_common.o
 .data          0x0000000000000000        0x0 build-optee/imx8mn/release/bl31/plat_bl_common.o
 .bss           0x0000000000000000        0x0 build-optee/imx8mn/release/bl31/plat_bl_common.o
 .text.bl2_el3_plat_prepare_exit
                0x0000000000000000        0x4 build-optee/imx8mn/release/bl31/plat_bl_common.o
 .text.plat_error_handler
                0x0000000000000000        0x8 build-optee/imx8mn/release/bl31/plat_bl_common.o
 .text.bl2_plat_preload_setup
                0x0000000000000000        0x4 build-optee/imx8mn/release/bl31/plat_bl_common.o
 .text.bl2_plat_handle_pre_image_load
                0x0000000000000000        0x8 build-optee/imx8mn/release/bl31/plat_bl_common.o
 .text.bl2_plat_handle_post_image_load
                0x0000000000000000        0x8 build-optee/imx8mn/release/bl31/plat_bl_common.o
 .text.plat_try_next_boot_source
                0x0000000000000000        0x8 build-optee/imx8mn/release/bl31/plat_bl_common.o
 .text.setup_page_tables
                0x0000000000000000       0x28 build-optee/imx8mn/release/bl31/plat_bl_common.o
 .debug_info    0x0000000000000000      0x375 build-optee/imx8mn/release/bl31/plat_bl_common.o
 .debug_abbrev  0x0000000000000000      0x1ff build-optee/imx8mn/release/bl31/plat_bl_common.o
 .debug_loc     0x0000000000000000       0xf1 build-optee/imx8mn/release/bl31/plat_bl_common.o
 .debug_aranges
                0x0000000000000000       0x70 build-optee/imx8mn/release/bl31/plat_bl_common.o
 .debug_ranges  0x0000000000000000       0x60 build-optee/imx8mn/release/bl31/plat_bl_common.o
 .debug_line    0x0000000000000000      0x195 build-optee/imx8mn/release/bl31/plat_bl_common.o
 .debug_str     0x0000000000000000      0x3fe build-optee/imx8mn/release/bl31/plat_bl_common.o
 .comment       0x0000000000000000       0x12 build-optee/imx8mn/release/bl31/plat_bl_common.o
 .note.GNU-stack
                0x0000000000000000        0x0 build-optee/imx8mn/release/bl31/plat_bl_common.o
 .eh_frame      0x0000000000000000       0xb0 build-optee/imx8mn/release/bl31/plat_bl_common.o
 .text          0x0000000000000000        0x0 build-optee/imx8mn/release/bl31/plat_log_common.o
 .data          0x0000000000000000        0x0 build-optee/imx8mn/release/bl31/plat_log_common.o
 .bss           0x0000000000000000        0x0 build-optee/imx8mn/release/bl31/plat_log_common.o
 .eh_frame      0x0000000000000000       0x28 build-optee/imx8mn/release/bl31/plat_log_common.o
 .text          0x0000000000000000        0x0 build-optee/imx8mn/release/bl31/plat_common.o
 .data          0x0000000000000000        0x0 build-optee/imx8mn/release/bl31/plat_common.o
 .bss           0x0000000000000000        0x0 build-optee/imx8mn/release/bl31/plat_common.o
 .text.platform_core_pos_helper
                0x0000000000000000        0x4 build-optee/imx8mn/release/bl31/plat_common.o
 .eh_frame      0x0000000000000000       0x60 build-optee/imx8mn/release/bl31/plat_common.o
 .text          0x0000000000000000        0x0 build-optee/imx8mn/release/bl31/imx8_helpers.o
 .data          0x0000000000000000        0x0 build-optee/imx8mn/release/bl31/imx8_helpers.o
 .bss           0x0000000000000000        0x0 build-optee/imx8mn/release/bl31/imx8_helpers.o
 .text.asm.plat_calc_core_pos
                0x0000000000000000       0x10 build-optee/imx8mn/release/bl31/imx8_helpers.o
 .text          0x0000000000000000        0x0 build-optee/imx8mn/release/bl31/imx_uart_console.o
 .data          0x0000000000000000        0x0 build-optee/imx8mn/release/bl31/imx_uart_console.o
 .bss           0x0000000000000000        0x0 build-optee/imx8mn/release/bl31/imx_uart_console.o
 .text          0x0000000000000000        0x0 build-optee/imx8mn/release/bl31/cortex_a53.o
 .data          0x0000000000000000        0x0 build-optee/imx8mn/release/bl31/cortex_a53.o
 .bss           0x0000000000000000        0x0 build-optee/imx8mn/release/bl31/cortex_a53.o
 .text.asm.check_errata_819472
                0x0000000000000000        0x8 build-optee/imx8mn/release/bl31/cortex_a53.o
 .text.asm.check_errata_824069
                0x0000000000000000        0x8 build-optee/imx8mn/release/bl31/cortex_a53.o
 .text.asm.errata_a53_826319_wa
                0x0000000000000000       0x20 build-optee/imx8mn/release/bl31/cortex_a53.o
 .text.asm.check_errata_826319
                0x0000000000000000        0x8 build-optee/imx8mn/release/bl31/cortex_a53.o
 .text.asm.check_errata_827319
                0x0000000000000000        0x8 build-optee/imx8mn/release/bl31/cortex_a53.o
 .text.asm.a53_disable_non_temporal_hint
                0x0000000000000000       0x1c build-optee/imx8mn/release/bl31/cortex_a53.o
 .text.asm.check_errata_disable_non_temporal_hint
                0x0000000000000000        0x8 build-optee/imx8mn/release/bl31/cortex_a53.o
 .text.asm.check_errata_835769
                0x0000000000000000       0x24 build-optee/imx8mn/release/bl31/cortex_a53.o
 .text.asm.check_errata_843419
                0x0000000000000000       0x24 build-optee/imx8mn/release/bl31/cortex_a53.o
 .rodata.cortex_a53_regs
                0x0000000000000000       0x36 build-optee/imx8mn/release/bl31/cortex_a53.o
 .text.asm.cortex_a53_cpu_reg_dump
                0x0000000000000000       0x18 build-optee/imx8mn/release/bl31/cortex_a53.o
 .text          0x0000000000000000        0x0 build-optee/imx8mn/release/bl31/enable_mmu.o
 .data          0x0000000000000000        0x0 build-optee/imx8mn/release/bl31/enable_mmu.o
 .bss           0x0000000000000000        0x0 build-optee/imx8mn/release/bl31/enable_mmu.o
 .text.asm.enable_mmu_direct_el1
                0x0000000000000000       0x58 build-optee/imx8mn/release/bl31/enable_mmu.o
 .text.asm.enable_mmu_direct_el2
                0x0000000000000000       0x58 build-optee/imx8mn/release/bl31/enable_mmu.o
 .text          0x0000000000000000        0x0 build-optee/imx8mn/release/bl31/bl31_entrypoint.o
 .data          0x0000000000000000        0x0 build-optee/imx8mn/release/bl31/bl31_entrypoint.o
 .bss           0x0000000000000000        0x0 build-optee/imx8mn/release/bl31/bl31_entrypoint.o
 .text          0x0000000000000000        0x0 build-optee/imx8mn/release/bl31/crash_reporting.o
 .data          0x0000000000000000        0x0 build-optee/imx8mn/release/bl31/crash_reporting.o
 .bss           0x0000000000000000        0x0 build-optee/imx8mn/release/bl31/crash_reporting.o
 .text.asm.crash_panic
                0x0000000000000000        0x4 build-optee/imx8mn/release/bl31/crash_reporting.o
 .text          0x0000000000000000        0x0 build-optee/imx8mn/release/bl31/ea_delegate.o
 .data          0x0000000000000000        0x0 build-optee/imx8mn/release/bl31/ea_delegate.o
 .bss           0x0000000000000000        0x0 build-optee/imx8mn/release/bl31/ea_delegate.o
 .text.asm.handle_lower_el_ea_esb
                0x0000000000000000        0xc build-optee/imx8mn/release/bl31/ea_delegate.o
 .text          0x0000000000000000        0x0 build-optee/imx8mn/release/bl31/runtime_exceptions.o
 .data          0x0000000000000000        0x0 build-optee/imx8mn/release/bl31/runtime_exceptions.o
 .bss           0x0000000000000000        0x0 build-optee/imx8mn/release/bl31/runtime_exceptions.o
 .text          0x0000000000000000        0x0 build-optee/imx8mn/release/bl31/dsu_helpers.o
 .data          0x0000000000000000        0x0 build-optee/imx8mn/release/bl31/dsu_helpers.o
 .bss           0x0000000000000000        0x0 build-optee/imx8mn/release/bl31/dsu_helpers.o
 .text.asm.check_errata_dsu_798953
                0x0000000000000000       0x20 build-optee/imx8mn/release/bl31/dsu_helpers.o
 .text.asm.errata_dsu_798953_wa
                0x0000000000000000       0x20 build-optee/imx8mn/release/bl31/dsu_helpers.o
 .text.asm.check_errata_dsu_936184
                0x0000000000000000       0x30 build-optee/imx8mn/release/bl31/dsu_helpers.o
 .text.asm.errata_dsu_936184_wa
                0x0000000000000000       0x30 build-optee/imx8mn/release/bl31/dsu_helpers.o
 .debug_frame   0x0000000000000000       0x70 build-optee/imx8mn/release/bl31/dsu_helpers.o
 .text          0x0000000000000000        0x0 build-optee/imx8mn/release/bl31/platform_mp_stack.o
 .data          0x0000000000000000        0x0 build-optee/imx8mn/release/bl31/platform_mp_stack.o
 .bss           0x0000000000000000        0x0 build-optee/imx8mn/release/bl31/platform_mp_stack.o
 .text          0x0000000000000000        0x0 build-optee/imx8mn/release/bl31/cpu_data.o
 .data          0x0000000000000000        0x0 build-optee/imx8mn/release/bl31/cpu_data.o
 .bss           0x0000000000000000        0x0 build-optee/imx8mn/release/bl31/cpu_data.o
 .text          0x0000000000000000        0x0 build-optee/imx8mn/release/bl31/cpu_helpers.o
 .data          0x0000000000000000        0x0 build-optee/imx8mn/release/bl31/cpu_helpers.o
 .bss           0x0000000000000000        0x0 build-optee/imx8mn/release/bl31/cpu_helpers.o
 .text.asm.cpu_rev_var_ls
                0x0000000000000000       0x14 build-optee/imx8mn/release/bl31/cpu_helpers.o
 .text.asm.cpu_rev_var_range
                0x0000000000000000       0x24 build-optee/imx8mn/release/bl31/cpu_helpers.o
 .text.asm.wa_cve_2018_3639_get_disable_ptr
                0x0000000000000000       0x10 build-optee/imx8mn/release/bl31/cpu_helpers.o
 .text          0x0000000000000000        0x0 build-optee/imx8mn/release/bl31/spinlock.o
 .data          0x0000000000000000        0x0 build-optee/imx8mn/release/bl31/spinlock.o
 .bss           0x0000000000000000        0x0 build-optee/imx8mn/release/bl31/spinlock.o
 .text          0x0000000000000000        0x0 build-optee/imx8mn/release/bl31/psci_helpers.o
 .data          0x0000000000000000        0x0 build-optee/imx8mn/release/bl31/psci_helpers.o
 .bss           0x0000000000000000        0x0 build-optee/imx8mn/release/bl31/psci_helpers.o
 .text          0x0000000000000000        0x0 build-optee/imx8mn/release/bl31/context.o
 .data          0x0000000000000000        0x0 build-optee/imx8mn/release/bl31/context.o
 .bss           0x0000000000000000        0x0 build-optee/imx8mn/release/bl31/context.o
 .text          0x0000000000000000        0x0 build-optee/imx8mn/release/bl31/wa_cve_2017_5715_bpiall.o
 .data          0x0000000000000000        0x0 build-optee/imx8mn/release/bl31/wa_cve_2017_5715_bpiall.o
 .bss           0x0000000000000000        0x0 build-optee/imx8mn/release/bl31/wa_cve_2017_5715_bpiall.o
 .vectors       0x0000000000000000     0x1000 build-optee/imx8mn/release/bl31/wa_cve_2017_5715_bpiall.o
 .debug_frame   0x0000000000000000      0x310 build-optee/imx8mn/release/bl31/wa_cve_2017_5715_bpiall.o
 .text          0x0000000000000000        0x0 build-optee/imx8mn/release/bl31/wa_cve_2017_5715_mmu.o
 .data          0x0000000000000000        0x0 build-optee/imx8mn/release/bl31/wa_cve_2017_5715_mmu.o
 .bss           0x0000000000000000        0x0 build-optee/imx8mn/release/bl31/wa_cve_2017_5715_mmu.o
 .vectors       0x0000000000000000      0x800 build-optee/imx8mn/release/bl31/wa_cve_2017_5715_mmu.o
 .debug_frame   0x0000000000000000      0x190 build-optee/imx8mn/release/bl31/wa_cve_2017_5715_mmu.o
 .text          0x0000000000000000        0x0 build-optee/imx8mn/release/bl31/opteed_helpers.o
 .data          0x0000000000000000        0x0 build-optee/imx8mn/release/bl31/opteed_helpers.o
 .bss           0x0000000000000000        0x0 build-optee/imx8mn/release/bl31/opteed_helpers.o
 .text          0x0000000000000000        0x0 build-optee/imx8mn/release/bl31/debug.o
 .data          0x0000000000000000        0x0 build-optee/imx8mn/release/bl31/debug.o
 .bss           0x0000000000000000        0x0 build-optee/imx8mn/release/bl31/debug.o
 .text.asm.asm_print_newline
                0x0000000000000000        0x8 build-optee/imx8mn/release/bl31/debug.o
 .text          0x0000000000000000        0x0 build-optee/imx8mn/release/bl31/cache_helpers.o
 .data          0x0000000000000000        0x0 build-optee/imx8mn/release/bl31/cache_helpers.o
 .bss           0x0000000000000000        0x0 build-optee/imx8mn/release/bl31/cache_helpers.o
 .text.asm.dcsw_op_louis
                0x0000000000000000       0x14 build-optee/imx8mn/release/bl31/cache_helpers.o
 .text.asm.dcsw_op_level3
                0x0000000000000000       0x10 build-optee/imx8mn/release/bl31/cache_helpers.o
 .text          0x0000000000000000        0x0 build-optee/imx8mn/release/bl31/misc_helpers.o
 .data          0x0000000000000000        0x0 build-optee/imx8mn/release/bl31/misc_helpers.o
 .bss           0x0000000000000000        0x0 build-optee/imx8mn/release/bl31/misc_helpers.o
 .text.asm.smc  0x0000000000000000        0x4 build-optee/imx8mn/release/bl31/misc_helpers.o
 .text.asm.memcpy16
                0x0000000000000000       0x30 build-optee/imx8mn/release/bl31/misc_helpers.o
 .text.asm.disable_mmu_el3
                0x0000000000000000       0x1c build-optee/imx8mn/release/bl31/misc_helpers.o
 .text.asm.disable_mmu_icache_el3
                0x0000000000000000        0x8 build-optee/imx8mn/release/bl31/misc_helpers.o
 .text.asm.disable_mmu_el1
                0x0000000000000000       0x1c build-optee/imx8mn/release/bl31/misc_helpers.o
 .text.asm.disable_mmu_icache_el1
                0x0000000000000000        0x8 build-optee/imx8mn/release/bl31/misc_helpers.o
 .text.asm.fixup_gdt_reloc
                0x0000000000000000       0x8c build-optee/imx8mn/release/bl31/misc_helpers.o
 .text          0x0000000000000000        0x0 build-optee/imx8mn/release/bl31/platform_helpers.o
 .data          0x0000000000000000        0x0 build-optee/imx8mn/release/bl31/platform_helpers.o
 .bss           0x0000000000000000        0x0 build-optee/imx8mn/release/bl31/platform_helpers.o
 .text.asm.plat_report_exception
                0x0000000000000000        0x4 build-optee/imx8mn/release/bl31/platform_helpers.o
 .text.asm.plat_reset_handler
                0x0000000000000000        0x4 build-optee/imx8mn/release/bl31/platform_helpers.o
 .text.asm.bl1_plat_prepare_exit
                0x0000000000000000        0x4 build-optee/imx8mn/release/bl31/platform_helpers.o
 .text.asm.bl32_plat_enable_mmu
                0x0000000000000000        0x4 build-optee/imx8mn/release/bl31/platform_helpers.o
 .text.asm.plat_handle_uncontainable_ea
                0x0000000000000000        0x4 build-optee/imx8mn/release/bl31/platform_helpers.o
 .text          0x0000000000000000        0x0 build-optee/imx8mn/release/lib/libc.a(memcpy.o)
 .data          0x0000000000000000        0x0 build-optee/imx8mn/release/lib/libc.a(memcpy.o)
 .bss           0x0000000000000000        0x0 build-optee/imx8mn/release/lib/libc.a(memcpy.o)
 .eh_frame      0x0000000000000000       0x28 build-optee/imx8mn/release/lib/libc.a(memcpy.o)
 .text          0x0000000000000000        0x0 build-optee/imx8mn/release/lib/libc.a(memmove.o)
 .data          0x0000000000000000        0x0 build-optee/imx8mn/release/lib/libc.a(memmove.o)
 .bss           0x0000000000000000        0x0 build-optee/imx8mn/release/lib/libc.a(memmove.o)
 .eh_frame      0x0000000000000000       0x28 build-optee/imx8mn/release/lib/libc.a(memmove.o)
 .text          0x0000000000000000        0x0 build-optee/imx8mn/release/lib/libc.a(memset.o)
 .data          0x0000000000000000        0x0 build-optee/imx8mn/release/lib/libc.a(memset.o)
 .bss           0x0000000000000000        0x0 build-optee/imx8mn/release/lib/libc.a(memset.o)
 .eh_frame      0x0000000000000000       0x28 build-optee/imx8mn/release/lib/libc.a(memset.o)
 .text          0x0000000000000000        0x0 build-optee/imx8mn/release/lib/libc.a(printf.o)
 .data          0x0000000000000000        0x0 build-optee/imx8mn/release/lib/libc.a(printf.o)
 .bss           0x0000000000000000        0x0 build-optee/imx8mn/release/lib/libc.a(printf.o)
 .eh_frame      0x0000000000000000       0xf0 build-optee/imx8mn/release/lib/libc.a(printf.o)
 .text          0x0000000000000000        0x0 build-optee/imx8mn/release/lib/libc.a(putchar.o)
 .data          0x0000000000000000        0x0 build-optee/imx8mn/release/lib/libc.a(putchar.o)
 .bss           0x0000000000000000        0x0 build-optee/imx8mn/release/lib/libc.a(putchar.o)
 .eh_frame      0x0000000000000000       0x38 build-optee/imx8mn/release/lib/libc.a(putchar.o)
 .text          0x0000000000000000        0x0 build-optee/imx8mn/release/lib/libc.a(strchr.o)
 .data          0x0000000000000000        0x0 build-optee/imx8mn/release/lib/libc.a(strchr.o)
 .bss           0x0000000000000000        0x0 build-optee/imx8mn/release/lib/libc.a(strchr.o)
 .eh_frame      0x0000000000000000       0x28 build-optee/imx8mn/release/lib/libc.a(strchr.o)

Memory Configuration

Name             Origin             Length             Attributes
RAM              0x0000000000960000 0x0000000000020000 xrw
*default*        0x0000000000000000 0xffffffffffffffff

Linker script and memory map

                0x0000000000960000                . = 0x960000
                0x0000000000000001                ASSERT ((. == ALIGN (0x1000)), BL31_BASE address is not aligned on a page boundary.)
                0x0000000000960000                __BL31_START__ = .

ro              0x0000000000960000     0xb000
                0x0000000000960000                __RO_START__ = .
 *bl31_entrypoint.o(.text*)
 .text.asm.bl31_entrypoint
                0x0000000000960000      0x14c build-optee/imx8mn/release/bl31/bl31_entrypoint.o
                0x0000000000960000                bl31_entrypoint
 .text.asm.bl31_warm_entrypoint
                0x000000000096014c       0x80 build-optee/imx8mn/release/bl31/bl31_entrypoint.o
                0x000000000096014c                bl31_warm_entrypoint
 *(.text*)
 *fill*         0x00000000009601cc        0x4 
 .text.imx_m4_lpa_active
                0x00000000009601d0       0x1c build-optee/imx8mn/release/bl31/gpc_common.o
                0x00000000009601d0                imx_m4_lpa_active
 *fill*         0x00000000009601ec        0x4 
 .text.imx_set_cpu_secure_entry
                0x00000000009601f0       0x30 build-optee/imx8mn/release/bl31/gpc_common.o
                0x00000000009601f0                imx_set_cpu_secure_entry
 .text.imx_set_cpu_pwr_off
                0x0000000000960220       0x88 build-optee/imx8mn/release/bl31/gpc_common.o
                0x0000000000960220                imx_set_cpu_pwr_off
 .text.imx_set_cpu_pwr_on
                0x00000000009602a8       0xe8 build-optee/imx8mn/release/bl31/gpc_common.o
                0x00000000009602a8                imx_set_cpu_pwr_on
 .text.imx_set_cpu_lpm
                0x0000000000960390      0x120 build-optee/imx8mn/release/bl31/gpc_common.o
                0x0000000000960390                imx_set_cpu_lpm
 .text.imx_set_cluster_powerdown
                0x00000000009604b0      0x188 build-optee/imx8mn/release/bl31/gpc_common.o
                0x00000000009604b0                imx_set_cluster_powerdown
 .text.imx_set_sys_wakeup
                0x0000000000960638       0xf8 build-optee/imx8mn/release/bl31/gpc_common.o
                0x0000000000960638                imx_set_sys_wakeup
 .text.imx_noc_slot_config
                0x0000000000960730       0xb0 build-optee/imx8mn/release/bl31/gpc_common.o
                0x0000000000960730                imx_noc_slot_config
 .text.imx_set_sys_lpm
                0x00000000009607e0       0x58 build-optee/imx8mn/release/bl31/gpc_common.o
                0x00000000009607e0                imx_set_sys_lpm
 .text.imx_set_rbc_count
                0x0000000000960838       0x1c build-optee/imx8mn/release/bl31/gpc_common.o
                0x0000000000960838                imx_set_rbc_count
 *fill*         0x0000000000960854        0x4 
 .text.imx_clear_rbc_count
                0x0000000000960858       0x18 build-optee/imx8mn/release/bl31/gpc_common.o
                0x0000000000960858                imx_clear_rbc_count
 .text.imx_anamix_override
                0x0000000000960870       0x7c build-optee/imx8mn/release/bl31/gpc_common.o
                0x0000000000960870                imx_anamix_override
 *fill*         0x00000000009608ec        0x4 
 .text.imx_gpc_handler
                0x00000000009608f0       0x34 build-optee/imx8mn/release/bl31/gpc_common.o
                0x00000000009608f0                imx_gpc_handler
 *fill*         0x0000000000960924        0x4 
 .text.imx_src_handler
                0x0000000000960928      0x164 build-optee/imx8mn/release/bl31/gpc_common.o
                0x0000000000960928                imx_src_handler
 *fill*         0x0000000000960a8c        0x4 
 .text.imx_hab_handler
                0x0000000000960a90      0x10c build-optee/imx8mn/release/bl31/hab.o
                0x0000000000960a90                imx_hab_handler
 *fill*         0x0000000000960b9c        0x4 
 .text.imx_aipstz_init
                0x0000000000960ba0       0x4c build-optee/imx8mn/release/bl31/imx_aipstz.o
                0x0000000000960ba0                imx_aipstz_init
 *fill*         0x0000000000960bec        0x4 
 .text.imx_rdc_init
                0x0000000000960bf0       0xac build-optee/imx8mn/release/bl31/imx_rdc.o
                0x0000000000960bf0                imx_rdc_init
 *fill*         0x0000000000960c9c        0x4 
 .text.imx8m_caam_init
                0x0000000000960ca0       0x7c build-optee/imx8mn/release/bl31/imx8m_caam.o
                0x0000000000960ca0                imx8m_caam_init
 *fill*         0x0000000000960d1c        0x4 
 .text.imx_csu_init
                0x0000000000960d20      0x17c build-optee/imx8mn/release/bl31/imx8m_csu.o
                0x0000000000960d20                imx_csu_init
 *fill*         0x0000000000960e9c        0x4 
 .text.imx_validate_ns_entrypoint
                0x0000000000960ea0       0x14 build-optee/imx8mn/release/bl31/imx8m_psci_common.o
                0x0000000000960ea0                imx_validate_ns_entrypoint
 *fill*         0x0000000000960eb4        0x4 
 .text.imx_pwr_domain_on
                0x0000000000960eb8       0x34 build-optee/imx8mn/release/bl31/imx8m_psci_common.o
                0x0000000000960eb8                imx_pwr_domain_on
 *fill*         0x0000000000960eec        0x4 
 .text.imx_pwr_domain_on_finish
                0x0000000000960ef0       0x14 build-optee/imx8mn/release/bl31/imx8m_psci_common.o
                0x0000000000960ef0                imx_pwr_domain_on_finish
 *fill*         0x0000000000960f04        0x4 
 .text.imx_pwr_domain_off
                0x0000000000960f08       0x24 build-optee/imx8mn/release/bl31/imx8m_psci_common.o
                0x0000000000960f08                imx_pwr_domain_off
 *fill*         0x0000000000960f2c        0x4 
 .text.imx_validate_power_state
                0x0000000000960f30       0x50 build-optee/imx8mn/release/bl31/imx8m_psci_common.o
                0x0000000000960f30                imx_validate_power_state
 .text.imx_cpu_standby
                0x0000000000960f80       0x30 build-optee/imx8mn/release/bl31/imx8m_psci_common.o
                0x0000000000960f80                imx_cpu_standby
 .text.imx_domain_suspend
                0x0000000000960fb0       0xdc build-optee/imx8mn/release/bl31/imx8m_psci_common.o
                0x0000000000960fb0                imx_domain_suspend
 *fill*         0x000000000096108c        0x4 
 .text.imx_domain_suspend_finish
                0x0000000000961090       0xd8 build-optee/imx8mn/release/bl31/imx8m_psci_common.o
                0x0000000000961090                imx_domain_suspend_finish
 .text.imx_get_sys_suspend_power_state
                0x0000000000961168       0x14 build-optee/imx8mn/release/bl31/imx8m_psci_common.o
                0x0000000000961168                imx_get_sys_suspend_power_state
 *fill*         0x000000000096117c        0x4 
 .text.imx_system_reset
                0x0000000000961180       0x34 build-optee/imx8mn/release/bl31/imx8m_psci_common.o
                0x0000000000961180                imx_system_reset
 *fill*         0x00000000009611b4        0x4 
 .text.imx_system_off
                0x00000000009611b8       0x14 build-optee/imx8mn/release/bl31/imx8m_psci_common.o
                0x00000000009611b8                imx_system_off
 *fill*         0x00000000009611cc        0x4 
 .text.imx_pwr_domain_pwr_down_wfi
                0x00000000009611d0       0x3c build-optee/imx8mn/release/bl31/imx8m_psci_common.o
                0x00000000009611d0                imx_pwr_domain_pwr_down_wfi
 *fill*         0x000000000096120c        0x4 
 .text.bl31_early_platform_setup2
                0x0000000000961210      0x13c build-optee/imx8mn/release/bl31/imx8mn_bl31_setup.o
                0x0000000000961210                bl31_early_platform_setup2
 *fill*         0x000000000096134c        0x4 
 .text.bl31_plat_arch_setup
                0x0000000000961350       0x8c build-optee/imx8mn/release/bl31/imx8mn_bl31_setup.o
                0x0000000000961350                bl31_plat_arch_setup
 *fill*         0x00000000009613dc        0x4 
 .text.bl31_platform_setup
                0x00000000009613e0       0x58 build-optee/imx8mn/release/bl31/imx8mn_bl31_setup.o
                0x00000000009613e0                bl31_platform_setup
 .text.bl31_plat_get_next_image_ep_info
                0x0000000000961438       0x28 build-optee/imx8mn/release/bl31/imx8mn_bl31_setup.o
                0x0000000000961438                bl31_plat_get_next_image_ep_info
 .text.plat_get_syscnt_freq2
                0x0000000000961460        0xc build-optee/imx8mn/release/bl31/imx8mn_bl31_setup.o
                0x0000000000961460                plat_get_syscnt_freq2
 *fill*         0x000000000096146c        0x4 
 .text.plat_setup_psci_ops
                0x0000000000961470       0x30 build-optee/imx8mn/release/bl31/imx8mn_psci.o
                0x0000000000961470                plat_setup_psci_ops
 .text.imx_gpc_pm_domain_enable
                0x00000000009614a0      0x1dc build-optee/imx8mn/release/bl31/gpc.o
                0x00000000009614a0                imx_gpc_pm_domain_enable
 *fill*         0x000000000096167c        0x4 
 .text.imx_noc_wrapper_pre_suspend
                0x0000000000961680       0xa8 build-optee/imx8mn/release/bl31/gpc.o
                0x0000000000961680                imx_noc_wrapper_pre_suspend
 .text.imx_noc_wrapper_post_resume
                0x0000000000961728       0xac build-optee/imx8mn/release/bl31/gpc.o
                0x0000000000961728                imx_noc_wrapper_post_resume
 *fill*         0x00000000009617d4        0x4 
 .text.imx_gpc_init
                0x00000000009617d8      0x174 build-optee/imx8mn/release/bl31/gpc.o
                0x00000000009617d8                imx_gpc_init
 *fill*         0x000000000096194c        0x4 
 .text.plat_get_power_domain_tree_desc
                0x0000000000961950        0xc build-optee/imx8mn/release/bl31/imx8_topology.o
                0x0000000000961950                plat_get_power_domain_tree_desc
 *fill*         0x000000000096195c        0x4 
 .text.plat_core_pos_by_mpidr
                0x0000000000961960       0x3c build-optee/imx8mn/release/bl31/imx8_topology.o
                0x0000000000961960                plat_core_pos_by_mpidr
 *fill*         0x000000000096199c        0x4 
 .text.imx_buildinfo_handler
                0x00000000009619a0       0x5c build-optee/imx8mn/release/bl31/imx_sip_handler.o
                0x00000000009619a0                imx_buildinfo_handler
 *fill*         0x00000000009619fc        0x4 
 .text.imx_sip_setup
                0x0000000000961a00        0x8 build-optee/imx8mn/release/bl31/imx_sip_svc.o
 .text.imx_sip_handler
                0x0000000000961a08      0x108 build-optee/imx8mn/release/bl31/imx_sip_svc.o
 .text.tzc380_init
                0x0000000000961b10       0x2c build-optee/imx8mn/release/bl31/tzc380.o
                0x0000000000961b10                tzc380_init
 *fill*         0x0000000000961b3c        0x4 
 .text.tzc380_configure_region
                0x0000000000961b40       0x2c build-optee/imx8mn/release/bl31/tzc380.o
                0x0000000000961b40                tzc380_configure_region
 *fill*         0x0000000000961b6c        0x4 
 .text.udelay   0x0000000000961b70       0x6c build-optee/imx8mn/release/bl31/delay_timer.o
                0x0000000000961b70                udelay
 *fill*         0x0000000000961bdc        0x4 
 .text.timer_init
                0x0000000000961be0        0xc build-optee/imx8mn/release/bl31/delay_timer.o
                0x0000000000961be0                timer_init
 *fill*         0x0000000000961bec        0x4 
 .text.get_timer_value
                0x0000000000961bf0        0xc build-optee/imx8mn/release/bl31/generic_delay_timer.o
 *fill*         0x0000000000961bfc        0x4 
 .text.generic_delay_timer_init
                0x0000000000961c00       0x94 build-optee/imx8mn/release/bl31/generic_delay_timer.o
                0x0000000000961c00                generic_delay_timer_init
 *fill*         0x0000000000961c94        0x4 
 .text.tcr_physical_addr_size_bits
                0x0000000000961c98       0x40 build-optee/imx8mn/release/bl31/xlat_tables_arch.o
                0x0000000000961c98                tcr_physical_addr_size_bits
 .text.is_dcache_enabled
                0x0000000000961cd8       0x3c build-optee/imx8mn/release/bl31/xlat_tables_arch.o
                0x0000000000961cd8                is_dcache_enabled
 *fill*         0x0000000000961d14        0x4 
 .text.xlat_arch_regime_get_xn_desc
                0x0000000000961d18       0x14 build-optee/imx8mn/release/bl31/xlat_tables_arch.o
                0x0000000000961d18                xlat_arch_regime_get_xn_desc
 *fill*         0x0000000000961d2c        0x4 
 .text.xlat_arch_current_el
                0x0000000000961d30        0xc build-optee/imx8mn/release/bl31/xlat_tables_arch.o
                0x0000000000961d30                xlat_arch_current_el
 *fill*         0x0000000000961d3c        0x4 
 .text.setup_mmu_cfg
                0x0000000000961d40       0x80 build-optee/imx8mn/release/bl31/xlat_tables_arch.o
                0x0000000000961d40                setup_mmu_cfg
 .text.mmap_add_region
                0x0000000000961dc0       0x3c build-optee/imx8mn/release/bl31/xlat_tables_context.o
                0x0000000000961dc0                mmap_add_region
 *fill*         0x0000000000961dfc        0x4 
 .text.mmap_add
                0x0000000000961e00       0x10 build-optee/imx8mn/release/bl31/xlat_tables_context.o
                0x0000000000961e00                mmap_add
 .text.init_xlat_tables
                0x0000000000961e10       0x38 build-optee/imx8mn/release/bl31/xlat_tables_context.o
                0x0000000000961e10                init_xlat_tables
 .text.enable_mmu_el3
                0x0000000000961e48       0x48 build-optee/imx8mn/release/bl31/xlat_tables_context.o
                0x0000000000961e48                enable_mmu_el3
 .text.xlat_desc
                0x0000000000961e90       0xb0 build-optee/imx8mn/release/bl31/xlat_tables_core.o
                0x0000000000961e90                xlat_desc
 .text.xlat_tables_map_region
                0x0000000000961f40      0x2a8 build-optee/imx8mn/release/bl31/xlat_tables_core.o
 .text.mmap_add_region_ctx
                0x00000000009621e8      0x280 build-optee/imx8mn/release/bl31/xlat_tables_core.o
                0x00000000009621e8                mmap_add_region_ctx
 .text.mmap_add_ctx
                0x0000000000962468       0x44 build-optee/imx8mn/release/bl31/xlat_tables_core.o
                0x0000000000962468                mmap_add_ctx
 *fill*         0x00000000009624ac        0x4 
 .text.init_xlat_tables_ctx
                0x00000000009624b0      0x134 build-optee/imx8mn/release/bl31/xlat_tables_core.o
                0x00000000009624b0                init_xlat_tables_ctx
 *fill*         0x00000000009625e4        0x4 
 .text.xlat_mmap_print
                0x00000000009625e8        0x4 build-optee/imx8mn/release/bl31/xlat_tables_utils.o
                0x00000000009625e8                xlat_mmap_print
 *fill*         0x00000000009625ec        0x4 
 .text.xlat_tables_print
                0x00000000009625f0        0x4 build-optee/imx8mn/release/bl31/xlat_tables_utils.o
                0x00000000009625f0                xlat_tables_print
 *fill*         0x00000000009625f4        0x4 
 .text.waiting_dvfs
                0x00000000009625f8       0x98 build-optee/imx8mn/release/bl31/dram.o
 .text.dram_umctl2_init
                0x0000000000962690       0x3c build-optee/imx8mn/release/bl31/dram.o
                0x0000000000962690                dram_umctl2_init
 *fill*         0x00000000009626cc        0x4 
 .text.dram_phy_init
                0x00000000009626d0       0xb0 build-optee/imx8mn/release/bl31/dram.o
                0x00000000009626d0                dram_phy_init
 .text.dram_info_init
                0x0000000000962780      0x244 build-optee/imx8mn/release/bl31/dram.o
                0x0000000000962780                dram_info_init
 *fill*         0x00000000009629c4        0x4 
 .text.dram_dvfs_get_freq_info
                0x00000000009629c8       0xd4 build-optee/imx8mn/release/bl31/dram.o
                0x00000000009629c8                dram_dvfs_get_freq_info
 *fill*         0x0000000000962a9c        0x4 
 .text.dram_dvfs_handler
                0x0000000000962aa0      0x180 build-optee/imx8mn/release/bl31/dram.o
                0x0000000000962aa0                dram_dvfs_handler
 .text.dram_pll_init
                0x0000000000962c20       0xd0 build-optee/imx8mn/release/bl31/clock.o
                0x0000000000962c20                dram_pll_init
 .text.dram_clock_switch
                0x0000000000962cf0       0xe0 build-optee/imx8mn/release/bl31/clock.o
                0x0000000000962cf0                dram_clock_switch
 .text.dram_enter_retention
                0x0000000000962dd0      0x19c build-optee/imx8mn/release/bl31/dram_retention.o
                0x0000000000962dd0                dram_enter_retention
 *fill*         0x0000000000962f6c        0x4 
 .text.dram_exit_retention
                0x0000000000962f70      0x244 build-optee/imx8mn/release/bl31/dram_retention.o
                0x0000000000962f70                dram_exit_retention
 *fill*         0x00000000009631b4        0x4 
 .text.ddr4_mr_write
                0x00000000009631b8       0xf4 build-optee/imx8mn/release/bl31/ddr4_dvfs.o
                0x00000000009631b8                ddr4_mr_write
 *fill*         0x00000000009632ac        0x4 
 .text.dram_cfg_all_mr
                0x00000000009632b0       0x84 build-optee/imx8mn/release/bl31/ddr4_dvfs.o
                0x00000000009632b0                dram_cfg_all_mr
 *fill*         0x0000000000963334        0x4 
 .text.sw_pstate
                0x0000000000963338       0xf8 build-optee/imx8mn/release/bl31/ddr4_dvfs.o
                0x0000000000963338                sw_pstate
 .text.ddr4_swffc
                0x0000000000963430      0x144 build-optee/imx8mn/release/bl31/ddr4_dvfs.o
                0x0000000000963430                ddr4_swffc
 *fill*         0x0000000000963574        0x4 
 .text.lpddr4_swffc
                0x0000000000963578      0x768 build-optee/imx8mn/release/bl31/lpddr4_dvfs.o
                0x0000000000963578                lpddr4_swffc
 .text.gicd_read_igrpmodr
                0x0000000000963ce0       0x14 build-optee/imx8mn/release/bl31/gicv3_helpers.o
                0x0000000000963ce0                gicd_read_igrpmodr
 *fill*         0x0000000000963cf4        0x4 
 .text.gicd_write_igrpmodr
                0x0000000000963cf8       0x14 build-optee/imx8mn/release/bl31/gicv3_helpers.o
                0x0000000000963cf8                gicd_write_igrpmodr
 *fill*         0x0000000000963d0c        0x4 
 .text.gicr_read_ipriorityr
                0x0000000000963d10       0x14 build-optee/imx8mn/release/bl31/gicv3_helpers.o
                0x0000000000963d10                gicr_read_ipriorityr
 *fill*         0x0000000000963d24        0x4 
 .text.gicr_write_ipriorityr
                0x0000000000963d28       0x14 build-optee/imx8mn/release/bl31/gicv3_helpers.o
                0x0000000000963d28                gicr_write_ipriorityr
 *fill*         0x0000000000963d3c        0x4 
 .text.gicv3_rdistif_mark_core_awake
                0x0000000000963d40       0x3c build-optee/imx8mn/release/bl31/gicv3_helpers.o
                0x0000000000963d40                gicv3_rdistif_mark_core_awake
 *fill*         0x0000000000963d7c        0x4 
 .text.gicv3_rdistif_mark_core_asleep
                0x0000000000963d80       0x1c build-optee/imx8mn/release/bl31/gicv3_helpers.o
                0x0000000000963d80                gicv3_rdistif_mark_core_asleep
 *fill*         0x0000000000963d9c        0x4 
 .text.gicv3_rdistif_base_addrs_probe
                0x0000000000963da0       0x6c build-optee/imx8mn/release/bl31/gicv3_helpers.o
                0x0000000000963da0                gicv3_rdistif_base_addrs_probe
 *fill*         0x0000000000963e0c        0x4 
 .text.gicv3_spis_config_defaults
                0x0000000000963e10       0x94 build-optee/imx8mn/release/bl31/gicv3_helpers.o
                0x0000000000963e10                gicv3_spis_config_defaults
 *fill*         0x0000000000963ea4        0x4 
 .text.gicv3_secure_spis_config_props
                0x0000000000963ea8      0x130 build-optee/imx8mn/release/bl31/gicv3_helpers.o
                0x0000000000963ea8                gicv3_secure_spis_config_props
 .text.gicv3_ppi_sgi_config_defaults
                0x0000000000963fd8       0x5c build-optee/imx8mn/release/bl31/gicv3_helpers.o
                0x0000000000963fd8                gicv3_ppi_sgi_config_defaults
 *fill*         0x0000000000964034        0x4 
 .text.gicv3_secure_ppi_sgi_config_props
                0x0000000000964038      0x10c build-optee/imx8mn/release/bl31/gicv3_helpers.o
                0x0000000000964038                gicv3_secure_ppi_sgi_config_props
 *fill*         0x0000000000964144        0x4 
 .text.arm_gicv3_distif_pre_save
                0x0000000000964148       0x2c build-optee/imx8mn/release/bl31/arm_gicv3_common.o
                0x0000000000964148                arm_gicv3_distif_pre_save
 *fill*         0x0000000000964174        0x4 
 .text.arm_gicv3_distif_post_restore
                0x0000000000964178       0x34 build-optee/imx8mn/release/bl31/arm_gicv3_common.o
                0x0000000000964178                arm_gicv3_distif_post_restore
 *fill*         0x00000000009641ac        0x4 
 .text.gicv3_distif_pre_save
                0x00000000009641b0        0x4 build-optee/imx8mn/release/bl31/gic500.o
                0x00000000009641b0                gicv3_distif_pre_save
 *fill*         0x00000000009641b4        0x4 
 .text.gicv3_distif_post_restore
                0x00000000009641b8        0x4 build-optee/imx8mn/release/bl31/gic500.o
                0x00000000009641b8                gicv3_distif_post_restore
 *fill*         0x00000000009641bc        0x4 
 .text.gicv3_driver_init
                0x00000000009641c0       0x70 build-optee/imx8mn/release/bl31/gicv3_main.o
                0x00000000009641c0                gicv3_driver_init
 .text.gicv3_distif_init
                0x0000000000964230       0x8c build-optee/imx8mn/release/bl31/gicv3_main.o
                0x0000000000964230                gicv3_distif_init
 *fill*         0x00000000009642bc        0x4 
 .text.gicv3_rdistif_on
                0x00000000009642c0        0x4 build-optee/imx8mn/release/bl31/gicv3_main.o
                0x00000000009642c0                gicv3_rdistif_on
 *fill*         0x00000000009642c4        0x4 
 .text.gicv3_rdistif_init
                0x00000000009642c8       0x88 build-optee/imx8mn/release/bl31/gicv3_main.o
                0x00000000009642c8                gicv3_rdistif_init
 .text.gicv3_cpuif_enable
                0x0000000000964350       0x88 build-optee/imx8mn/release/bl31/gicv3_main.o
                0x0000000000964350                gicv3_cpuif_enable
 .text.gicv3_cpuif_disable
                0x00000000009643d8       0x3c build-optee/imx8mn/release/bl31/gicv3_main.o
                0x00000000009643d8                gicv3_cpuif_disable
 *fill*         0x0000000000964414        0x4 
 .text.gicv3_get_pending_interrupt_type
                0x0000000000964418        0xc build-optee/imx8mn/release/bl31/gicv3_main.o
                0x0000000000964418                gicv3_get_pending_interrupt_type
 *fill*         0x0000000000964424        0x4 
 .text.gicv3_rdistif_save
                0x0000000000964428      0x100 build-optee/imx8mn/release/bl31/gicv3_main.o
                0x0000000000964428                gicv3_rdistif_save
 .text.gicv3_rdistif_init_restore
                0x0000000000964528      0x140 build-optee/imx8mn/release/bl31/gicv3_main.o
                0x0000000000964528                gicv3_rdistif_init_restore
 .text.gicv3_distif_save
                0x0000000000964668      0x210 build-optee/imx8mn/release/bl31/gicv3_main.o
                0x0000000000964668                gicv3_distif_save
 .text.gicv3_distif_init_restore
                0x0000000000964878      0x238 build-optee/imx8mn/release/bl31/gicv3_main.o
                0x0000000000964878                gicv3_distif_init_restore
 .text.gicv3_raise_secure_g0_sgi
                0x0000000000964ab0       0x48 build-optee/imx8mn/release/bl31/gicv3_main.o
                0x0000000000964ab0                gicv3_raise_secure_g0_sgi
 .text.gicd_read_igroupr
                0x0000000000964af8       0x14 build-optee/imx8mn/release/bl31/gic_common.o
                0x0000000000964af8                gicd_read_igroupr
 *fill*         0x0000000000964b0c        0x4 
 .text.gicd_read_isenabler
                0x0000000000964b10       0x14 build-optee/imx8mn/release/bl31/gic_common.o
                0x0000000000964b10                gicd_read_isenabler
 *fill*         0x0000000000964b24        0x4 
 .text.gicd_read_ispendr
                0x0000000000964b28       0x14 build-optee/imx8mn/release/bl31/gic_common.o
                0x0000000000964b28                gicd_read_ispendr
 *fill*         0x0000000000964b3c        0x4 
 .text.gicd_read_isactiver
                0x0000000000964b40       0x14 build-optee/imx8mn/release/bl31/gic_common.o
                0x0000000000964b40                gicd_read_isactiver
 *fill*         0x0000000000964b54        0x4 
 .text.gicd_read_ipriorityr
                0x0000000000964b58       0x10 build-optee/imx8mn/release/bl31/gic_common.o
                0x0000000000964b58                gicd_read_ipriorityr
 .text.gicd_read_icfgr
                0x0000000000964b68       0x14 build-optee/imx8mn/release/bl31/gic_common.o
                0x0000000000964b68                gicd_read_icfgr
 *fill*         0x0000000000964b7c        0x4 
 .text.gicd_read_nsacr
                0x0000000000964b80       0x14 build-optee/imx8mn/release/bl31/gic_common.o
                0x0000000000964b80                gicd_read_nsacr
 *fill*         0x0000000000964b94        0x4 
 .text.gicd_write_igroupr
                0x0000000000964b98       0x14 build-optee/imx8mn/release/bl31/gic_common.o
                0x0000000000964b98                gicd_write_igroupr
 *fill*         0x0000000000964bac        0x4 
 .text.gicd_write_isenabler
                0x0000000000964bb0       0x14 build-optee/imx8mn/release/bl31/gic_common.o
                0x0000000000964bb0                gicd_write_isenabler
 *fill*         0x0000000000964bc4        0x4 
 .text.gicd_write_ispendr
                0x0000000000964bc8       0x14 build-optee/imx8mn/release/bl31/gic_common.o
                0x0000000000964bc8                gicd_write_ispendr
 *fill*         0x0000000000964bdc        0x4 
 .text.gicd_write_isactiver
                0x0000000000964be0       0x14 build-optee/imx8mn/release/bl31/gic_common.o
                0x0000000000964be0                gicd_write_isactiver
 *fill*         0x0000000000964bf4        0x4 
 .text.gicd_write_ipriorityr
                0x0000000000964bf8       0x10 build-optee/imx8mn/release/bl31/gic_common.o
                0x0000000000964bf8                gicd_write_ipriorityr
 .text.gicd_write_icfgr
                0x0000000000964c08       0x14 build-optee/imx8mn/release/bl31/gic_common.o
                0x0000000000964c08                gicd_write_icfgr
 *fill*         0x0000000000964c1c        0x4 
 .text.gicd_write_nsacr
                0x0000000000964c20       0x14 build-optee/imx8mn/release/bl31/gic_common.o
                0x0000000000964c20                gicd_write_nsacr
 *fill*         0x0000000000964c34        0x4 
 .text.gicd_clr_igroupr
                0x0000000000964c38       0x24 build-optee/imx8mn/release/bl31/gic_common.o
                0x0000000000964c38                gicd_clr_igroupr
 *fill*         0x0000000000964c5c        0x4 
 .text.gicd_set_isenabler
                0x0000000000964c60       0x1c build-optee/imx8mn/release/bl31/gic_common.o
                0x0000000000964c60                gicd_set_isenabler
 *fill*         0x0000000000964c7c        0x4 
 .text.gicd_set_ipriorityr
                0x0000000000964c80       0x10 build-optee/imx8mn/release/bl31/gic_common.o
                0x0000000000964c80                gicd_set_ipriorityr
 .text.gicd_set_icfgr
                0x0000000000964c90       0x34 build-optee/imx8mn/release/bl31/gic_common.o
                0x0000000000964c90                gicd_set_icfgr
 *fill*         0x0000000000964cc4        0x4 
 .text.plat_ic_get_pending_interrupt_type
                0x0000000000964cc8       0x30 build-optee/imx8mn/release/bl31/plat_gicv3.o
                0x0000000000964cc8                plat_ic_get_pending_interrupt_type
 .text.plat_ic_acknowledge_interrupt
                0x0000000000964cf8        0xc build-optee/imx8mn/release/bl31/plat_gicv3.o
                0x0000000000964cf8                plat_ic_acknowledge_interrupt
 *fill*         0x0000000000964d04        0x4 
 .text.plat_ic_end_of_interrupt
                0x0000000000964d08        0xc build-optee/imx8mn/release/bl31/plat_gicv3.o
                0x0000000000964d08                plat_ic_end_of_interrupt
 *fill*         0x0000000000964d14        0x4 
 .text.plat_interrupt_type_to_line
                0x0000000000964d18       0x4c build-optee/imx8mn/release/bl31/plat_gicv3.o
                0x0000000000964d18                plat_interrupt_type_to_line
 *fill*         0x0000000000964d64        0x4 
 .text.plat_ic_raise_el3_sgi
                0x0000000000964d68        0x4 build-optee/imx8mn/release/bl31/plat_gicv3.o
                0x0000000000964d68                plat_ic_raise_el3_sgi
 *fill*         0x0000000000964d6c        0x4 
 .text.plat_get_target_pwr_state
                0x0000000000964d70       0x2c build-optee/imx8mn/release/bl31/plat_psci_common.o
                0x0000000000964d70                plat_get_target_pwr_state
 *fill*         0x0000000000964d9c        0x4 
 .text.plat_imx_mpidr_to_core_pos
                0x0000000000964da0        0x4 build-optee/imx8mn/release/bl31/plat_imx8_gic.o
 *fill*         0x0000000000964da4        0x4 
 .text.plat_gic_driver_init
                0x0000000000964da8        0xc build-optee/imx8mn/release/bl31/plat_imx8_gic.o
                0x0000000000964da8                plat_gic_driver_init
 *fill*         0x0000000000964db4        0x4 
 .text.plat_gic_init
                0x0000000000964db8       0x60 build-optee/imx8mn/release/bl31/plat_imx8_gic.o
                0x0000000000964db8                plat_gic_init
 .text.plat_gic_cpuif_enable
                0x0000000000964e18       0x14 build-optee/imx8mn/release/bl31/plat_imx8_gic.o
                0x0000000000964e18                plat_gic_cpuif_enable
 *fill*         0x0000000000964e2c        0x4 
 .text.plat_gic_cpuif_disable
                0x0000000000964e30       0x14 build-optee/imx8mn/release/bl31/plat_imx8_gic.o
                0x0000000000964e30                plat_gic_cpuif_disable
 *fill*         0x0000000000964e44        0x4 
 .text.plat_gic_pcpu_init
                0x0000000000964e48       0x14 build-optee/imx8mn/release/bl31/plat_imx8_gic.o
                0x0000000000964e48                plat_gic_pcpu_init
 *fill*         0x0000000000964e5c        0x4 
 .text.plat_gic_save
                0x0000000000964e60       0x4c build-optee/imx8mn/release/bl31/plat_imx8_gic.o
                0x0000000000964e60                plat_gic_save
 *fill*         0x0000000000964eac        0x4 
 .text.plat_gic_restore
                0x0000000000964eb0       0x44 build-optee/imx8mn/release/bl31/plat_imx8_gic.o
                0x0000000000964eb0                plat_gic_restore
 *fill*         0x0000000000964ef4        0x4 
 .text.get_arm_std_svc_args
                0x0000000000964ef8        0xc build-optee/imx8mn/release/bl31/bl31_main.o
                0x0000000000964ef8                get_arm_std_svc_args
 *fill*         0x0000000000964f04        0x4 
 .text.bl31_setup
                0x0000000000964f08       0x14 build-optee/imx8mn/release/bl31/bl31_main.o
                0x0000000000964f08                bl31_setup
 *fill*         0x0000000000964f1c        0x4 
 .text.bl31_prepare_next_image_entry
                0x0000000000964f20       0x60 build-optee/imx8mn/release/bl31/bl31_main.o
                0x0000000000964f20                bl31_prepare_next_image_entry
 .text.bl31_main
                0x0000000000964f80       0x64 build-optee/imx8mn/release/bl31/bl31_main.o
                0x0000000000964f80                bl31_main
 *fill*         0x0000000000964fe4        0x4 
 .text.bl31_register_bl32_init
                0x0000000000964fe8        0xc build-optee/imx8mn/release/bl31/bl31_main.o
                0x0000000000964fe8                bl31_register_bl32_init
 *fill*         0x0000000000964ff4        0x4 
 .text.set_scr_el3_from_rm
                0x0000000000964ff8       0x8c build-optee/imx8mn/release/bl31/interrupt_mgmt.o
 *fill*         0x0000000000965084        0x4 
 .text.get_scr_el3_from_routing_model
                0x0000000000965088       0x28 build-optee/imx8mn/release/bl31/interrupt_mgmt.o
                0x0000000000965088                get_scr_el3_from_routing_model
 .text.set_routing_model
                0x00000000009650b0       0xac build-optee/imx8mn/release/bl31/interrupt_mgmt.o
                0x00000000009650b0                set_routing_model
 *fill*         0x000000000096515c        0x4 
 .text.register_interrupt_type_handler
                0x0000000000965160       0x84 build-optee/imx8mn/release/bl31/interrupt_mgmt.o
                0x0000000000965160                register_interrupt_type_handler
 *fill*         0x00000000009651e4        0x4 
 .text.get_interrupt_type_handler
                0x00000000009651e8       0x28 build-optee/imx8mn/release/bl31/interrupt_mgmt.o
                0x00000000009651e8                get_interrupt_type_handler
 .text.cm_get_context
                0x0000000000965210        0xc build-optee/imx8mn/release/bl31/bl31_context_mgmt.o
                0x0000000000965210                cm_get_context
 *fill*         0x000000000096521c        0x4 
 .text.cm_set_context
                0x0000000000965220        0xc build-optee/imx8mn/release/bl31/bl31_context_mgmt.o
                0x0000000000965220                cm_set_context
 *fill*         0x000000000096522c        0x4 
 .text.cm_get_context_by_index
                0x0000000000965230       0x24 build-optee/imx8mn/release/bl31/bl31_context_mgmt.o
                0x0000000000965230                cm_get_context_by_index
 *fill*         0x0000000000965254        0x4 
 .text.cm_set_context_by_index
                0x0000000000965258       0x28 build-optee/imx8mn/release/bl31/bl31_context_mgmt.o
                0x0000000000965258                cm_set_context_by_index
 .text.runtime_svc_init
                0x0000000000965280      0x158 build-optee/imx8mn/release/bl31/runtime_svc.o
                0x0000000000965280                runtime_svc_init
 .text.arm_arch_svc_smc_handler
                0x00000000009653d8       0xbc build-optee/imx8mn/release/bl31/arm_arch_svc_setup.o
 *fill*         0x0000000000965494        0x4 
 .text.std_svc_setup
                0x0000000000965498       0x24 build-optee/imx8mn/release/bl31/std_svc_setup.o
 *fill*         0x00000000009654bc        0x4 
 .text.std_svc_smc_handler
                0x00000000009654c0       0xc8 build-optee/imx8mn/release/bl31/std_svc_setup.o
 .text.cm_init  0x0000000000965588        0x4 build-optee/imx8mn/release/bl31/context_mgmt.o
                0x0000000000965588                cm_init
 *fill*         0x000000000096558c        0x4 
 .text.cm_setup_context
                0x0000000000965590      0x128 build-optee/imx8mn/release/bl31/context_mgmt.o
                0x0000000000965590                cm_setup_context
 .text.cm_init_context_by_index
                0x00000000009656b8       0x2c build-optee/imx8mn/release/bl31/context_mgmt.o
                0x00000000009656b8                cm_init_context_by_index
 *fill*         0x00000000009656e4        0x4 
 .text.cm_init_my_context
                0x00000000009656e8       0x2c build-optee/imx8mn/release/bl31/context_mgmt.o
                0x00000000009656e8                cm_init_my_context
 *fill*         0x0000000000965714        0x4 
 .text.cm_el1_sysregs_context_save
                0x0000000000965718       0xc0 build-optee/imx8mn/release/bl31/context_mgmt.o
                0x0000000000965718                cm_el1_sysregs_context_save
 .text.cm_el1_sysregs_context_restore
                0x00000000009657d8       0xc0 build-optee/imx8mn/release/bl31/context_mgmt.o
                0x00000000009657d8                cm_el1_sysregs_context_restore
 .text.cm_prepare_el3_exit
                0x0000000000965898       0xf4 build-optee/imx8mn/release/bl31/context_mgmt.o
                0x0000000000965898                cm_prepare_el3_exit
 *fill*         0x000000000096598c        0x4 
 .text.cm_set_elr_el3
                0x0000000000965990       0x24 build-optee/imx8mn/release/bl31/context_mgmt.o
                0x0000000000965990                cm_set_elr_el3
 *fill*         0x00000000009659b4        0x4 
 .text.cm_write_scr_el3_bit
                0x00000000009659b8       0x40 build-optee/imx8mn/release/bl31/context_mgmt.o
                0x00000000009659b8                cm_write_scr_el3_bit
 .text.cm_set_next_eret_context
                0x00000000009659f8       0x20 build-optee/imx8mn/release/bl31/context_mgmt.o
                0x00000000009659f8                cm_set_next_eret_context
 .text.psci_do_cpu_off
                0x0000000000965a18      0x100 build-optee/imx8mn/release/bl31/psci_off.o
                0x0000000000965a18                psci_do_cpu_off
 .text.psci_cpu_on_start
                0x0000000000965b18      0x188 build-optee/imx8mn/release/bl31/psci_on.o
                0x0000000000965b18                psci_cpu_on_start
 .text.psci_cpu_on_finish
                0x0000000000965ca0       0xf4 build-optee/imx8mn/release/bl31/psci_on.o
                0x0000000000965ca0                psci_cpu_on_finish
 *fill*         0x0000000000965d94        0x4 
 .text.psci_cpu_suspend_start
                0x0000000000965d98      0x1ec build-optee/imx8mn/release/bl31/psci_suspend.o
                0x0000000000965d98                psci_cpu_suspend_start
 *fill*         0x0000000000965f84        0x4 
 .text.psci_cpu_suspend_finish
                0x0000000000965f88       0xc4 build-optee/imx8mn/release/bl31/psci_suspend.o
                0x0000000000965f88                psci_cpu_suspend_finish
 *fill*         0x000000000096604c        0x4 
 .text.psci_validate_power_state
                0x0000000000966050       0x28 build-optee/imx8mn/release/bl31/psci_common.o
                0x0000000000966050                psci_validate_power_state
 .text.psci_query_sys_suspend_pwrstate
                0x0000000000966078       0x14 build-optee/imx8mn/release/bl31/psci_common.o
                0x0000000000966078                psci_query_sys_suspend_pwrstate
 *fill*         0x000000000096608c        0x4 
 .text.psci_is_last_on_cpu
                0x0000000000966090       0x60 build-optee/imx8mn/release/bl31/psci_common.o
                0x0000000000966090                psci_is_last_on_cpu
 .text.psci_init_req_local_pwr_states
                0x00000000009660f0       0x10 build-optee/imx8mn/release/bl31/psci_common.o
                0x00000000009660f0                psci_init_req_local_pwr_states
 .text.psci_get_target_local_pwr_states
                0x0000000000966100       0x94 build-optee/imx8mn/release/bl31/psci_common.o
                0x0000000000966100                psci_get_target_local_pwr_states
 *fill*         0x0000000000966194        0x4 
 .text.psci_get_parent_pwr_domain_nodes
                0x0000000000966198       0x48 build-optee/imx8mn/release/bl31/psci_common.o
                0x0000000000966198                psci_get_parent_pwr_domain_nodes
 .text.psci_set_pwr_domains_to_run
                0x00000000009661e0       0xbc build-optee/imx8mn/release/bl31/psci_common.o
                0x00000000009661e0                psci_set_pwr_domains_to_run
 *fill*         0x000000000096629c        0x4 
 .text.psci_do_state_coordination
                0x00000000009662a0      0x1d4 build-optee/imx8mn/release/bl31/psci_common.o
                0x00000000009662a0                psci_do_state_coordination
 *fill*         0x0000000000966474        0x4 
 .text.psci_find_max_off_lvl
                0x0000000000966478       0x50 build-optee/imx8mn/release/bl31/psci_common.o
                0x0000000000966478                psci_find_max_off_lvl
 .text.psci_find_target_suspend_lvl
                0x00000000009664c8       0x34 build-optee/imx8mn/release/bl31/psci_common.o
                0x00000000009664c8                psci_find_target_suspend_lvl
 *fill*         0x00000000009664fc        0x4 
 .text.psci_acquire_pwr_domain_locks
                0x0000000000966500       0x74 build-optee/imx8mn/release/bl31/psci_common.o
                0x0000000000966500                psci_acquire_pwr_domain_locks
 *fill*         0x0000000000966574        0x4 
 .text.psci_release_pwr_domain_locks
                0x0000000000966578       0x64 build-optee/imx8mn/release/bl31/psci_common.o
                0x0000000000966578                psci_release_pwr_domain_locks
 *fill*         0x00000000009665dc        0x4 
 .text.psci_validate_mpidr
                0x00000000009665e0       0x20 build-optee/imx8mn/release/bl31/psci_common.o
                0x00000000009665e0                psci_validate_mpidr
 .text.psci_validate_entry_point
                0x0000000000966600      0x110 build-optee/imx8mn/release/bl31/psci_common.o
                0x0000000000966600                psci_validate_entry_point
 .text.psci_warmboot_entrypoint
                0x0000000000966710      0x178 build-optee/imx8mn/release/bl31/psci_common.o
                0x0000000000966710                psci_warmboot_entrypoint
 .text.psci_register_spd_pm_hook
                0x0000000000966888       0x3c build-optee/imx8mn/release/bl31/psci_common.o
                0x0000000000966888                psci_register_spd_pm_hook
 *fill*         0x00000000009668c4        0x4 
 .text.psci_spd_migrate_info
                0x00000000009668c8       0x24 build-optee/imx8mn/release/bl31/psci_common.o
                0x00000000009668c8                psci_spd_migrate_info
 *fill*         0x00000000009668ec        0x4 
 .text.psci_print_power_domain_map
                0x00000000009668f0        0x4 build-optee/imx8mn/release/bl31/psci_common.o
                0x00000000009668f0                psci_print_power_domain_map
 *fill*         0x00000000009668f4        0x4 
 .text.psci_do_pwrdown_sequence
                0x00000000009668f8        0x4 build-optee/imx8mn/release/bl31/psci_common.o
                0x00000000009668f8                psci_do_pwrdown_sequence
 *fill*         0x00000000009668fc        0x4 
 .text.psci_cpu_on
                0x0000000000966900       0x5c build-optee/imx8mn/release/bl31/psci_main.o
                0x0000000000966900                psci_cpu_on
 *fill*         0x000000000096695c        0x4 
 .text.psci_cpu_suspend
                0x0000000000966960      0x11c build-optee/imx8mn/release/bl31/psci_main.o
                0x0000000000966960                psci_cpu_suspend
 *fill*         0x0000000000966a7c        0x4 
 .text.psci_system_suspend
                0x0000000000966a80       0x88 build-optee/imx8mn/release/bl31/psci_main.o
                0x0000000000966a80                psci_system_suspend
 .text.psci_affinity_info
                0x0000000000966b08       0x58 build-optee/imx8mn/release/bl31/psci_main.o
                0x0000000000966b08                psci_affinity_info
 .text.psci_migrate
                0x0000000000966b60       0x84 build-optee/imx8mn/release/bl31/psci_main.o
                0x0000000000966b60                psci_migrate
 *fill*         0x0000000000966be4        0x4 
 .text.psci_node_hw_state
                0x0000000000966be8       0x58 build-optee/imx8mn/release/bl31/psci_main.o
                0x0000000000966be8                psci_node_hw_state
 .text.psci_features
                0x0000000000966c40       0x6c build-optee/imx8mn/release/bl31/psci_main.o
                0x0000000000966c40                psci_features
 *fill*         0x0000000000966cac        0x4 
 .text.psci_smc_handler
                0x0000000000966cb0      0x32c build-optee/imx8mn/release/bl31/psci_main.o
                0x0000000000966cb0                psci_smc_handler
 *fill*         0x0000000000966fdc        0x4 
 .text.psci_setup
                0x0000000000966fe0      0x368 build-optee/imx8mn/release/bl31/psci_setup.o
                0x0000000000966fe0                psci_setup
 .text.psci_arch_setup
                0x0000000000967348       0x1c build-optee/imx8mn/release/bl31/psci_setup.o
                0x0000000000967348                psci_arch_setup
 *fill*         0x0000000000967364        0x4 
 .text.psci_system_off
                0x0000000000967368       0x38 build-optee/imx8mn/release/bl31/psci_system_off.o
                0x0000000000967368                psci_system_off
 .text.psci_system_reset
                0x00000000009673a0       0x38 build-optee/imx8mn/release/bl31/psci_system_off.o
                0x00000000009673a0                psci_system_reset
 .text.psci_system_reset2
                0x00000000009673d8       0x9c build-optee/imx8mn/release/bl31/psci_system_off.o
                0x00000000009673d8                psci_system_reset2
 *fill*         0x0000000000967474        0x4 
 .text.psci_mem_protect
                0x0000000000967478       0x64 build-optee/imx8mn/release/bl31/psci_mem_protect.o
                0x0000000000967478                psci_mem_protect
 *fill*         0x00000000009674dc        0x4 
 .text.psci_mem_chk_range
                0x00000000009674e0       0x4c build-optee/imx8mn/release/bl31/psci_mem_protect.o
                0x00000000009674e0                psci_mem_chk_range
 *fill*         0x000000000096752c        0x4 
 .text.bakery_lock_get
                0x0000000000967530       0xd8 build-optee/imx8mn/release/bl31/bakery_lock_coherent.o
                0x0000000000967530                bakery_lock_get
 .text.bakery_lock_release
                0x0000000000967608       0x34 build-optee/imx8mn/release/bl31/bakery_lock_coherent.o
                0x0000000000967608                bakery_lock_release
 *fill*         0x000000000096763c        0x4 
 .text.spe_drain_buffers_hook
                0x0000000000967640       0x28 build-optee/imx8mn/release/bl31/spe.o
 .text.spe_enable
                0x0000000000967668       0x3c build-optee/imx8mn/release/bl31/spe.o
                0x0000000000967668                spe_enable
 *fill*         0x00000000009676a4        0x4 
 .text.disable_sve_hook
                0x00000000009676a8       0x34 build-optee/imx8mn/release/bl31/sve.o
 *fill*         0x00000000009676dc        0x4 
 .text.enable_sve_hook
                0x00000000009676e0       0x34 build-optee/imx8mn/release/bl31/sve.o
 *fill*         0x0000000000967714        0x4 
 .text.sve_enable
                0x0000000000967718       0x48 build-optee/imx8mn/release/bl31/sve.o
                0x0000000000967718                sve_enable
 .text.opteed_init_optee_ep_state
                0x0000000000967760       0xa4 build-optee/imx8mn/release/bl31/opteed_common.o
                0x0000000000967760                opteed_init_optee_ep_state
 *fill*         0x0000000000967804        0x4 
 .text.opteed_synchronous_sp_entry
                0x0000000000967808       0x30 build-optee/imx8mn/release/bl31/opteed_common.o
                0x0000000000967808                opteed_synchronous_sp_entry
 .text.opteed_synchronous_sp_exit
                0x0000000000967838       0x28 build-optee/imx8mn/release/bl31/opteed_common.o
                0x0000000000967838                opteed_synchronous_sp_exit
 .text.opteed_sel1_interrupt_handler
                0x0000000000967860       0x7c build-optee/imx8mn/release/bl31/opteed_main.o
 *fill*         0x00000000009678dc        0x4 
 .text.opteed_smc_handler
                0x00000000009678e0      0x248 build-optee/imx8mn/release/bl31/opteed_main.o
 .text.opteed_setup
                0x0000000000967b28       0x98 build-optee/imx8mn/release/bl31/opteed_main.o
 .text.opteed_init
                0x0000000000967bc0       0x40 build-optee/imx8mn/release/bl31/opteed_main.o
 .text.opteed_cpu_on_handler
                0x0000000000967c00        0x4 build-optee/imx8mn/release/bl31/opteed_pm.o
 *fill*         0x0000000000967c04        0x4 
 .text.opteed_cpu_migrate_info
                0x0000000000967c08        0x8 build-optee/imx8mn/release/bl31/opteed_pm.o
 .text.opteed_system_reset
                0x0000000000967c10       0x44 build-optee/imx8mn/release/bl31/opteed_pm.o
 *fill*         0x0000000000967c54        0x4 
 .text.opteed_system_off
                0x0000000000967c58       0x44 build-optee/imx8mn/release/bl31/opteed_pm.o
 *fill*         0x0000000000967c9c        0x4 
 .text.opteed_cpu_suspend_finish_handler
                0x0000000000967ca0       0x8c build-optee/imx8mn/release/bl31/opteed_pm.o
 *fill*         0x0000000000967d2c        0x4 
 .text.opteed_cpu_suspend_handler
                0x0000000000967d30       0x8c build-optee/imx8mn/release/bl31/opteed_pm.o
 *fill*         0x0000000000967dbc        0x4 
 .text.opteed_cpu_off_handler
                0x0000000000967dc0       0x78 build-optee/imx8mn/release/bl31/opteed_pm.o
 .text.opteed_cpu_on_finish_handler
                0x0000000000967e38       0xa8 build-optee/imx8mn/release/bl31/opteed_pm.o
 .text.print_entry_point_info
                0x0000000000967ee0        0x4 build-optee/imx8mn/release/bl31/bl_common.o
                0x0000000000967ee0                print_entry_point_info
 *fill*         0x0000000000967ee4        0x4 
 .text.tf_log   0x0000000000967ee8       0xa0 build-optee/imx8mn/release/bl31/tf_log.o
                0x0000000000967ee8                tf_log
 .text.console_register
                0x0000000000967f88       0x3c build-optee/imx8mn/release/bl31/multi_console.o
                0x0000000000967f88                console_register
 *fill*         0x0000000000967fc4        0x4 
 .text.console_switch_state
                0x0000000000967fc8        0xc build-optee/imx8mn/release/bl31/multi_console.o
                0x0000000000967fc8                console_switch_state
 *fill*         0x0000000000967fd4        0x4 
 .text.console_set_scope
                0x0000000000967fd8       0x18 build-optee/imx8mn/release/bl31/multi_console.o
                0x0000000000967fd8                console_set_scope
 .text.console_putc
                0x0000000000967ff0       0xb8 build-optee/imx8mn/release/bl31/multi_console.o
                0x0000000000967ff0                console_putc
 .text.console_flush
                0x00000000009680a8       0x84 build-optee/imx8mn/release/bl31/multi_console.o
                0x00000000009680a8                console_flush
 *fill*         0x000000000096812c        0x4 
 .text.plat_log_get_prefix
                0x0000000000968130       0x3c build-optee/imx8mn/release/bl31/plat_log_common.o
                0x0000000000968130                plat_log_get_prefix
 *fill*         0x000000000096816c        0x4 
 .text.bl31_plat_runtime_setup
                0x0000000000968170        0x8 build-optee/imx8mn/release/bl31/plat_common.o
                0x0000000000968170                bl31_plat_runtime_setup
 .text.plat_ea_handler
                0x0000000000968178       0x40 build-optee/imx8mn/release/bl31/plat_common.o
                0x0000000000968178                plat_ea_handler
 .text.asm.plat_is_my_cpu_primary
                0x00000000009681b8       0x14 build-optee/imx8mn/release/bl31/imx8_helpers.o
                0x00000000009681b8                plat_is_my_cpu_primary
 .text.asm.plat_my_core_pos
                0x00000000009681cc       0x14 build-optee/imx8mn/release/bl31/imx8_helpers.o
                0x00000000009681cc                plat_my_core_pos
 .text.asm.plat_reset_handler
                0x00000000009681e0       0x38 build-optee/imx8mn/release/bl31/imx8_helpers.o
                0x00000000009681e0                plat_reset_handler
 .text.asm.plat_get_my_entrypoint
                0x0000000000968218        0xc build-optee/imx8mn/release/bl31/imx8_helpers.o
                0x0000000000968218                plat_get_my_entrypoint
 .text.asm.imx_mailbox_init
                0x0000000000968224        0xc build-optee/imx8mn/release/bl31/imx8_helpers.o
                0x0000000000968224                imx_mailbox_init
 .text.asm.plat_secondary_cold_boot_setup
                0x0000000000968230        0x4 build-optee/imx8mn/release/bl31/imx8_helpers.o
                0x0000000000968230                plat_secondary_cold_boot_setup
 .text.asm.plat_crash_console_init
                0x0000000000968234        0x8 build-optee/imx8mn/release/bl31/imx8_helpers.o
                0x0000000000968234                plat_crash_console_init
 .text.asm.plat_crash_console_putc
                0x000000000096823c        0x4 build-optee/imx8mn/release/bl31/imx8_helpers.o
                0x000000000096823c                plat_crash_console_putc
 .text.asm.plat_crash_console_flush
                0x0000000000968240        0x8 build-optee/imx8mn/release/bl31/imx8_helpers.o
                0x0000000000968240                plat_crash_console_flush
 .text.asm.platform_mem_init
                0x0000000000968248        0x4 build-optee/imx8mn/release/bl31/imx8_helpers.o
                0x0000000000968248                platform_mem_init
 .text.asm.console_imx_uart_register
                0x000000000096824c       0x54 build-optee/imx8mn/release/bl31/imx_uart_console.o
                0x000000000096824c                console_imx_uart_register
 .text.asm.console_imx_uart_init
                0x00000000009682a0        0x8 build-optee/imx8mn/release/bl31/imx_uart_console.o
                0x00000000009682a0                console_imx_uart_init
 .text.asm.console_imx_uart_putc
                0x00000000009682a8       0x38 build-optee/imx8mn/release/bl31/imx_uart_console.o
                0x00000000009682a8                console_imx_uart_putc
 .text.asm.console_imx_uart_getc
                0x00000000009682e0       0x24 build-optee/imx8mn/release/bl31/imx_uart_console.o
                0x00000000009682e0                console_imx_uart_getc
 .text.asm.console_imx_uart_flush
                0x0000000000968304        0x8 build-optee/imx8mn/release/bl31/imx_uart_console.o
                0x0000000000968304                console_imx_uart_flush
 .text.asm.cortex_a53_disable_dcache
                0x000000000096830c       0x14 build-optee/imx8mn/release/bl31/cortex_a53.o
 .text.asm.cortex_a53_disable_smp
                0x0000000000968320       0x18 build-optee/imx8mn/release/bl31/cortex_a53.o
 .text.asm.errata_a53_855873_wa
                0x0000000000968338       0x1c build-optee/imx8mn/release/bl31/cortex_a53.o
 .text.asm.check_errata_855873
                0x0000000000968354        0x8 build-optee/imx8mn/release/bl31/cortex_a53.o
 .text.asm.cortex_a53_reset_func
                0x000000000096835c       0x28 build-optee/imx8mn/release/bl31/cortex_a53.o
 .text.asm.cortex_a53_core_pwr_dwn
                0x0000000000968384       0x18 build-optee/imx8mn/release/bl31/cortex_a53.o
 .text.asm.cortex_a53_cluster_pwr_dwn
                0x000000000096839c       0x24 build-optee/imx8mn/release/bl31/cortex_a53.o
 .text.asm.enable_mmu_direct_el3
                0x00000000009683c0       0x58 build-optee/imx8mn/release/bl31/enable_mmu.o
                0x00000000009683c0                enable_mmu_direct_el3
 .text.asm.report_unhandled_exception
                0x0000000000968418        0x4 build-optee/imx8mn/release/bl31/crash_reporting.o
                0x0000000000968418                report_unhandled_exception
                0x0000000000968418                report_unhandled_interrupt
 .text.asm.enter_lower_el_sync_ea
                0x000000000096841c       0x74 build-optee/imx8mn/release/bl31/ea_delegate.o
                0x000000000096841c                enter_lower_el_sync_ea
 .text.asm.enter_lower_el_async_ea
                0x0000000000968490       0x18 build-optee/imx8mn/release/bl31/ea_delegate.o
                0x0000000000968490                enter_lower_el_async_ea
 .text.asm.delegate_sync_ea
                0x00000000009684a8        0x4 build-optee/imx8mn/release/bl31/ea_delegate.o
 .text.asm.delegate_async_ea
                0x00000000009684ac        0x4 build-optee/imx8mn/release/bl31/ea_delegate.o
 .text.asm.ea_proceed
                0x00000000009684b0       0x68 build-optee/imx8mn/release/bl31/ea_delegate.o
 .text.asm.smc_handler
                0x0000000000968518       0x78 build-optee/imx8mn/release/bl31/runtime_exceptions.o
 .text.asm.plat_get_my_stack
                0x0000000000968590       0x1c build-optee/imx8mn/release/bl31/platform_mp_stack.o
                0x0000000000968590                plat_get_my_stack
 .text.asm.plat_set_my_stack
                0x00000000009685ac       0x10 build-optee/imx8mn/release/bl31/platform_mp_stack.o
                0x00000000009685ac                plat_set_my_stack
 .text.asm.init_cpu_data_ptr
                0x00000000009685bc       0x14 build-optee/imx8mn/release/bl31/cpu_data.o
                0x00000000009685bc                init_cpu_data_ptr
 .text.asm._cpu_data_by_index
                0x00000000009685d0       0x14 build-optee/imx8mn/release/bl31/cpu_data.o
                0x00000000009685d0                _cpu_data_by_index
 .text.asm.reset_handler
                0x00000000009685e4       0x20 build-optee/imx8mn/release/bl31/cpu_helpers.o
                0x00000000009685e4                reset_handler
 .text.asm.prepare_cpu_pwr_dwn
                0x0000000000968604       0x24 build-optee/imx8mn/release/bl31/cpu_helpers.o
                0x0000000000968604                prepare_cpu_pwr_dwn
 .text.asm.init_cpu_ops
                0x0000000000968628       0x20 build-optee/imx8mn/release/bl31/cpu_helpers.o
                0x0000000000968628                init_cpu_ops
 .text.asm.get_cpu_ops_ptr
                0x0000000000968648       0x3c build-optee/imx8mn/release/bl31/cpu_helpers.o
                0x0000000000968648                get_cpu_ops_ptr
 .text.asm.cpu_get_rev_var
                0x0000000000968684       0x10 build-optee/imx8mn/release/bl31/cpu_helpers.o
                0x0000000000968684                cpu_get_rev_var
 .text.asm.cpu_rev_var_hs
                0x0000000000968694       0x14 build-optee/imx8mn/release/bl31/cpu_helpers.o
                0x0000000000968694                cpu_rev_var_hs
 .text.asm.check_wa_cve_2017_5715
                0x00000000009686a8       0x20 build-optee/imx8mn/release/bl31/cpu_helpers.o
                0x00000000009686a8                check_wa_cve_2017_5715
 .text.asm.spin_lock
                0x00000000009686c8       0x20 build-optee/imx8mn/release/bl31/spinlock.o
                0x00000000009686c8                spin_lock
 .text.asm.spin_unlock
                0x00000000009686e8        0x8 build-optee/imx8mn/release/bl31/spinlock.o
                0x00000000009686e8                spin_unlock
 .text.asm.psci_do_pwrdown_cache_maintenance
                0x00000000009686f0       0x3c build-optee/imx8mn/release/bl31/psci_helpers.o
                0x00000000009686f0                psci_do_pwrdown_cache_maintenance
 .text.asm.psci_do_pwrup_cache_maintenance
                0x000000000096872c       0x34 build-optee/imx8mn/release/bl31/psci_helpers.o
                0x000000000096872c                psci_do_pwrup_cache_maintenance
 .text.asm.psci_power_down_wfi
                0x0000000000968760        0xc build-optee/imx8mn/release/bl31/psci_helpers.o
                0x0000000000968760                psci_power_down_wfi
 .text.asm.el1_sysregs_context_save
                0x000000000096876c       0xcc build-optee/imx8mn/release/bl31/context.o
                0x000000000096876c                el1_sysregs_context_save
 .text.asm.el1_sysregs_context_restore
                0x0000000000968838       0xcc build-optee/imx8mn/release/bl31/context.o
                0x0000000000968838                el1_sysregs_context_restore
 .text.asm.save_gp_pmcr_pauth_regs
                0x0000000000968904       0x74 build-optee/imx8mn/release/bl31/context.o
                0x0000000000968904                save_gp_pmcr_pauth_regs
 .text.asm.restore_gp_pmcr_pauth_regs
                0x0000000000968978       0x68 build-optee/imx8mn/release/bl31/context.o
                0x0000000000968978                restore_gp_pmcr_pauth_regs
 .text.asm.el3_exit
                0x00000000009689e0       0x2c build-optee/imx8mn/release/bl31/context.o
                0x00000000009689e0                el3_exit
 .text.asm.opteed_enter_sp
                0x0000000000968a0c       0x28 build-optee/imx8mn/release/bl31/opteed_helpers.o
                0x0000000000968a0c                opteed_enter_sp
 .text.asm.opteed_exit_sp
                0x0000000000968a34       0x24 build-optee/imx8mn/release/bl31/opteed_helpers.o
                0x0000000000968a34                opteed_exit_sp
 .text.asm.asm_print_str
                0x0000000000968a58       0x18 build-optee/imx8mn/release/bl31/debug.o
                0x0000000000968a58                asm_print_str
 .text.asm.asm_print_hex
                0x0000000000968a70       0x30 build-optee/imx8mn/release/bl31/debug.o
                0x0000000000968a70                asm_print_hex
                0x0000000000968a74                asm_print_hex_bits
 .text.asm.do_panic
                0x0000000000968aa0       0x2c build-optee/imx8mn/release/bl31/debug.o
                0x0000000000968aa0                do_panic
                0x0000000000968aa0                el3_panic
 .text.asm.flush_dcache_range
                0x0000000000968acc       0x38 build-optee/imx8mn/release/bl31/cache_helpers.o
                0x0000000000968acc                flush_dcache_range
 .text.asm.clean_dcache_range
                0x0000000000968b04       0x38 build-optee/imx8mn/release/bl31/cache_helpers.o
                0x0000000000968b04                clean_dcache_range
 .text.asm.inv_dcache_range
                0x0000000000968b3c       0x38 build-optee/imx8mn/release/bl31/cache_helpers.o
                0x0000000000968b3c                inv_dcache_range
 .text.asm.do_dcsw_op
                0x0000000000968b74       0xdc build-optee/imx8mn/release/bl31/cache_helpers.o
 .text.asm.dcsw_op_all
                0x0000000000968c50       0x14 build-optee/imx8mn/release/bl31/cache_helpers.o
                0x0000000000968c50                dcsw_op_all
 .text.asm.dcsw_op_level1
                0x0000000000968c64       0x10 build-optee/imx8mn/release/bl31/cache_helpers.o
                0x0000000000968c64                dcsw_op_level1
 .text.asm.dcsw_op_level2
                0x0000000000968c74       0x10 build-optee/imx8mn/release/bl31/cache_helpers.o
                0x0000000000968c74                dcsw_op_level2
 .text.asm.zeromem
                0x0000000000968c84        0x8 build-optee/imx8mn/release/bl31/misc_helpers.o
                0x0000000000968c84                zeromem
 .text.asm.zeromem_dczva
                0x0000000000968c8c       0xe8 build-optee/imx8mn/release/bl31/misc_helpers.o
                0x0000000000968c8c                zero_normalmem
 .text.asm.plat_disable_acp
                0x0000000000968d74        0x4 build-optee/imx8mn/release/bl31/platform_helpers.o
                0x0000000000968d74                plat_disable_acp
 .text.asm.plat_panic_handler
                0x0000000000968d78        0x8 build-optee/imx8mn/release/bl31/platform_helpers.o
                0x0000000000968d78                plat_panic_handler
 .text.asm.bl31_plat_enable_mmu
                0x0000000000968d80        0x4 build-optee/imx8mn/release/bl31/platform_helpers.o
                0x0000000000968d80                bl31_plat_enable_mmu
 .text.asm.plat_handle_double_fault
                0x0000000000968d84        0x4 build-optee/imx8mn/release/bl31/platform_helpers.o
                0x0000000000968d84                plat_handle_double_fault
 .text.asm.plat_handle_el3_ea
                0x0000000000968d88        0x4 build-optee/imx8mn/release/bl31/platform_helpers.o
                0x0000000000968d88                plat_handle_el3_ea
 *fill*         0x0000000000968d8c        0x4 
 .text.memcpy   0x0000000000968d90       0x20 build-optee/imx8mn/release/lib/libc.a(memcpy.o)
                0x0000000000968d90                memcpy
 .text.memmove  0x0000000000968db0       0x50 build-optee/imx8mn/release/lib/libc.a(memmove.o)
                0x0000000000968db0                memmove
 .text.memset   0x0000000000968e00       0x20 build-optee/imx8mn/release/lib/libc.a(memset.o)
                0x0000000000968e00                memset
 .text.unsigned_num_print
                0x0000000000968e20       0xdc build-optee/imx8mn/release/lib/libc.a(printf.o)
 *fill*         0x0000000000968efc        0x4 
 .text.vprintf  0x0000000000968f00      0x4f4 build-optee/imx8mn/release/lib/libc.a(printf.o)
                0x0000000000968f00                vprintf
 *fill*         0x00000000009693f4        0x4 
 .text.printf   0x00000000009693f8       0x50 build-optee/imx8mn/release/lib/libc.a(printf.o)
                0x00000000009693f8                printf
 .text.putchar  0x0000000000969448       0x2c build-optee/imx8mn/release/lib/libc.a(putchar.o)
                0x0000000000969448                putchar
 *fill*         0x0000000000969474        0x4 
 .text.strchr   0x0000000000969478       0x2c build-optee/imx8mn/release/lib/libc.a(strchr.o)
                0x0000000000969478                strchr
 *(.rodata*)
 *fill*         0x00000000009694a4        0x4 
 .rodata.build_message
                0x00000000009694a8       0x1e build-optee/imx8mn/release/bl31/build_message.o
                0x00000000009694a8                build_message
 *fill*         0x00000000009694c6        0x2 
 .rodata.version_string
                0x00000000009694c8       0x2a build-optee/imx8mn/release/bl31/build_message.o
                0x00000000009694c8                version_string
 *fill*         0x00000000009694f2        0x6 
 .rodata.gpc_imr_offset
                0x00000000009694f8       0x10 build-optee/imx8mn/release/bl31/gpc_common.o
 .rodata.aipstz
                0x0000000000969508       0xc8 build-optee/imx8mn/release/bl31/imx8mn_bl31_setup.o
 .rodata.csu_cfg
                0x00000000009695d0       0x18 build-optee/imx8mn/release/bl31/imx8mn_bl31_setup.o
 .rodata.imx_mmap
                0x00000000009695e8      0x168 build-optee/imx8mn/release/bl31/imx8mn_bl31_setup.o
 .rodata.rdc    0x0000000000969750       0x8c build-optee/imx8mn/release/bl31/imx8mn_bl31_setup.o
 *fill*         0x00000000009697dc        0x4 
 .rodata.imx_plat_psci_ops
                0x00000000009697e0       0xa8 build-optee/imx8mn/release/bl31/imx8mn_psci.o
 .rodata.imx_power_domain_tree_desc
                0x0000000000969888        0x4 build-optee/imx8mn/release/bl31/imx8_topology.o
                0x0000000000969888                imx_power_domain_tree_desc
 *fill*         0x000000000096988c        0x4 
 .rodata.str1.8
                0x0000000000969890        0xc build-optee/imx8mn/release/bl31/imx_sip_svc.o
 *fill*         0x000000000096989c        0x4 
 .rodata.mmap_add_region_ctx.str1.8
                0x00000000009698a0       0x2b build-optee/imx8mn/release/bl31/xlat_tables_core.o
 *fill*         0x00000000009698cb        0x5 
 .rodata.init_xlat_tables_ctx.str1.8
                0x00000000009698d0       0x4f build-optee/imx8mn/release/bl31/xlat_tables_core.o
 *fill*         0x000000000096991f        0x1 
 .rodata.fsp_init_reg
                0x0000000000969920       0x30 build-optee/imx8mn/release/bl31/dram.o
 .rodata.ddr4_swffc.str1.8
                0x0000000000969950       0x2a build-optee/imx8mn/release/bl31/ddr4_dvfs.o
 *fill*         0x000000000096997a        0x6 
 .rodata.CSWTCH.10
                0x0000000000969980       0x10 build-optee/imx8mn/release/bl31/plat_gicv3.o
 .rodata.arm_gic_data
                0x0000000000969990       0x30 build-optee/imx8mn/release/bl31/plat_imx8_gic.o
                0x0000000000969990                arm_gic_data
 .rodata.g01s_interrupt_props
                0x00000000009699c0        0x4 build-optee/imx8mn/release/bl31/plat_imx8_gic.o
 *fill*         0x00000000009699c4        0x4 
 .rodata.bl31_prepare_next_image_entry.str1.8
                0x00000000009699c8       0x50 build-optee/imx8mn/release/bl31/bl31_main.o
 .rodata.bl31_main.str1.8
                0x0000000000969a18        0xb build-optee/imx8mn/release/bl31/bl31_main.o
 *fill*         0x0000000000969a23        0x5 
 .rodata.psci_args.2914
                0x0000000000969a28       0x10 build-optee/imx8mn/release/bl31/bl31_main.o
 .rodata.runtime_svc_init.str1.8
                0x0000000000969a38       0x50 build-optee/imx8mn/release/bl31/runtime_svc.o
 .rodata.str1.8
                0x0000000000969a88        0xd build-optee/imx8mn/release/bl31/arm_arch_svc_setup.o
 *fill*         0x0000000000969a95        0x3 
 .rodata.str1.8
                0x0000000000969a98        0x8 build-optee/imx8mn/release/bl31/std_svc_setup.o
 .rodata.psci_warmboot_entrypoint.str1.8
                0x0000000000969aa0       0x20 build-optee/imx8mn/release/bl31/psci_common.o
 .rodata.psci_cpu_suspend.str1.8
                0x0000000000969ac0       0x33 build-optee/imx8mn/release/bl31/psci_main.o
 *fill*         0x0000000000969af3        0x5 
 .rodata.str1.8
                0x0000000000969af8       0x1c build-optee/imx8mn/release/bl31/opteed_main.o
 *fill*         0x0000000000969b14        0x4 
 .rodata.opteed_pm
                0x0000000000969b18       0x48 build-optee/imx8mn/release/bl31/opteed_pm.o
                0x0000000000969b18                opteed_pm
 .rodata.str1.8
                0x0000000000969b60       0x4a build-optee/imx8mn/release/bl31/plat_log_common.o
 *fill*         0x0000000000969baa        0x6 
 .rodata.plat_prefix_str
                0x0000000000969bb0       0x28 build-optee/imx8mn/release/bl31/plat_log_common.o
 .rodata.plat_ea_handler.str1.8
                0x0000000000969bd8       0x5f build-optee/imx8mn/release/bl31/plat_common.o
 .rodata.panic_str
                0x0000000000969c37       0x11 build-optee/imx8mn/release/bl31/debug.o
 .rodata.vprintf.str1.8
                0x0000000000969c48        0x8 build-optee/imx8mn/release/lib/libc.a(printf.o)
                                          0x3 (size before relaxing)
                0x0000000000969c50                . = ALIGN (0x8)
                0x0000000000969c50                __RT_SVC_DESCS_START__ = .
 *(rt_svc_descs)
 rt_svc_descs   0x0000000000969c50       0x20 build-optee/imx8mn/release/bl31/imx_sip_svc.o
 rt_svc_descs   0x0000000000969c70       0x20 build-optee/imx8mn/release/bl31/arm_arch_svc_setup.o
 rt_svc_descs   0x0000000000969c90       0x20 build-optee/imx8mn/release/bl31/std_svc_setup.o
 rt_svc_descs   0x0000000000969cb0       0x40 build-optee/imx8mn/release/bl31/opteed_main.o
                0x0000000000969cf0                __RT_SVC_DESCS_END__ = .
                0x0000000000969cf0                . = ALIGN (0x8)
                0x0000000000969cf0                __CPU_OPS_START__ = .
 *(cpu_ops)
 cpu_ops        0x0000000000969cf0       0x38 build-optee/imx8mn/release/bl31/cortex_a53.o
                0x0000000000969d28                __CPU_OPS_END__ = .
                0x0000000000969d28                . = ALIGN (0x8)
                0x0000000000969d28                __GOT_START__ = .
 *(.got)
                0x0000000000969d28                __GOT_END__ = .
                0x0000000000969d28                . = ALIGN (0x8)
                0x0000000000969d28                __pubsub_psci_cpu_on_finish_start = .
 *(__pubsub_psci_cpu_on_finish)
                0x0000000000969d28                __pubsub_psci_cpu_on_finish_end = .
                0x0000000000969d28                __pubsub_psci_suspend_pwrdown_start_start = .
 *(__pubsub_psci_suspend_pwrdown_start)
                0x0000000000969d28                __pubsub_psci_suspend_pwrdown_start_end = .
                0x0000000000969d28                __pubsub_psci_suspend_pwrdown_finish_start = .
 *(__pubsub_psci_suspend_pwrdown_finish)
                0x0000000000969d28                __pubsub_psci_suspend_pwrdown_finish_end = .
                0x0000000000969d28                __pubsub_cm_entering_secure_world_start = .
 *(__pubsub_cm_entering_secure_world)
 __pubsub_cm_entering_secure_world
                0x0000000000969d28        0x8 build-optee/imx8mn/release/bl31/spe.o
                0x0000000000969d28                __cb_func_spe_drain_buffers_hookcm_entering_secure_world
                0x0000000000969d30                __pubsub_cm_entering_secure_world_end = .
                0x0000000000969d30                __pubsub_cm_exited_secure_world_start = .
 *(__pubsub_cm_exited_secure_world)
                0x0000000000969d30                __pubsub_cm_exited_secure_world_end = .
                0x0000000000969d30                __pubsub_cm_entering_normal_world_start = .
 *(__pubsub_cm_entering_normal_world)
 __pubsub_cm_entering_normal_world
                0x0000000000969d30        0x8 build-optee/imx8mn/release/bl31/sve.o
                0x0000000000969d30                __cb_func_enable_sve_hookcm_entering_normal_world
                0x0000000000969d38                __pubsub_cm_entering_normal_world_end = .
                0x0000000000969d38                __pubsub_cm_exited_normal_world_start = .
 *(__pubsub_cm_exited_normal_world)
 __pubsub_cm_exited_normal_world
                0x0000000000969d38        0x8 build-optee/imx8mn/release/bl31/sve.o
                0x0000000000969d38                __cb_func_disable_sve_hookcm_exited_normal_world
                0x0000000000969d40                __pubsub_cm_exited_normal_world_end = .
 *(.vectors)
 *fill*         0x0000000000969d40      0x2c0 
 .vectors       0x000000000096a000      0x800 build-optee/imx8mn/release/bl31/runtime_exceptions.o
                0x000000000096a000                sync_exception_sp_el0
                0x000000000096a000                runtime_exceptions
                0x000000000096a080                irq_sp_el0
                0x000000000096a100                fiq_sp_el0
                0x000000000096a180                serror_sp_el0
                0x000000000096a200                sync_exception_sp_elx
                0x000000000096a280                irq_sp_elx
                0x000000000096a300                fiq_sp_elx
                0x000000000096a380                serror_sp_elx
                0x000000000096a400                sync_exception_aarch64
                0x000000000096a480                irq_aarch64
                0x000000000096a500                fiq_aarch64
                0x000000000096a580                serror_aarch64
                0x000000000096a600                sync_exception_aarch32
                0x000000000096a680                irq_aarch32
                0x000000000096a700                fiq_aarch32
                0x000000000096a780                serror_aarch32
                0x000000000096a800                __RO_END_UNALIGNED__ = .
                0x000000000096b000                . = ALIGN (0x1000)
 *fill*         0x000000000096a800      0x800 
                0x000000000096b000                __RO_END__ = .
                0x0000000000000001                ASSERT ((__CPU_OPS_END__ > __CPU_OPS_START__), cpu_ops not defined for this platform.)
                0x000000000096b000                __RW_START__ = .

.iplt           0x000000000096b000        0x0
 .iplt          0x000000000096b000        0x0 build-optee/imx8mn/release/bl31/build_message.o

.data           0x000000000096b000      0x1b0
                0x000000000096b000                __DATA_START__ = .
 *(.data*)
 .data.pll      0x000000000096b000       0x50 build-optee/imx8mn/release/bl31/gpc_common.o
                0x000000000096b000                pll
 .data.pu_domains
                0x000000000096b050       0xdc build-optee/imx8mn/release/bl31/gpc.o
 *fill*         0x000000000096b12c        0x4 
 .data.tf_xlat_ctx
                0x000000000096b130       0x60 build-optee/imx8mn/release/bl31/xlat_tables_context.o
 .data.dev_fsp  0x000000000096b190        0x4 build-optee/imx8mn/release/bl31/dram.o
 .data.wait_ddrc_hwffc_done
                0x000000000096b194        0x1 build-optee/imx8mn/release/bl31/dram.o
 *fill*         0x000000000096b195        0x3 
 .data.next_image_type
                0x000000000096b198        0x4 build-optee/imx8mn/release/bl31/bl31_main.o
 .data.max_log_level
                0x000000000096b19c        0x4 build-optee/imx8mn/release/bl31/tf_log.o
 .data.console_state
                0x000000000096b1a0        0x1 build-optee/imx8mn/release/bl31/multi_console.o
                0x000000000096b1a0                console_state
 *fill*         0x000000000096b1a1        0x7 
 .data.mailbox_base
                0x000000000096b1a8        0x8 build-optee/imx8mn/release/bl31/imx8_helpers.o
                0x000000000096b1b0                __DATA_END__ = .

.igot.plt       0x000000000096b1b0        0x0
 .igot.plt      0x000000000096b1b0        0x0 build-optee/imx8mn/release/bl31/build_message.o
                0x000000000096b1b0                . = ALIGN (0x8)
                0x000000000096b1b0                __RELA_START__ = .

.rela.dyn       0x000000000096b1b0        0x0
 .rela.iplt     0x000000000096b1b0        0x0 build-optee/imx8mn/release/bl31/build_message.o
 .rela.text.bl31_plat_arch_setup
                0x000000000096b1b0        0x0 build-optee/imx8mn/release/bl31/build_message.o
 .rela.rodata.imx_plat_psci_ops
                0x000000000096b1b0        0x0 build-optee/imx8mn/release/bl31/build_message.o
 .rela.text.imx_noc_wrapper_pre_suspend
                0x000000000096b1b0        0x0 build-optee/imx8mn/release/bl31/build_message.o
 .rela.text.imx_noc_wrapper_post_resume
                0x000000000096b1b0        0x0 build-optee/imx8mn/release/bl31/build_message.o
 .rela.text.tzc380_init
                0x000000000096b1b0        0x0 build-optee/imx8mn/release/bl31/build_message.o
 .rela.text.tzc380_configure_region
                0x000000000096b1b0        0x0 build-optee/imx8mn/release/bl31/build_message.o
 .rela.text.enable_mmu_el3
                0x000000000096b1b0        0x0 build-optee/imx8mn/release/bl31/build_message.o
 .rela.text.waiting_dvfs
                0x000000000096b1b0        0x0 build-optee/imx8mn/release/bl31/build_message.o
 .rela.text.dram_info_init
                0x000000000096b1b0        0x0 build-optee/imx8mn/release/bl31/build_message.o
 .rela.text.dram_dvfs_get_freq_info
                0x000000000096b1b0        0x0 build-optee/imx8mn/release/bl31/build_message.o
 .rela.text.dram_dvfs_handler
                0x000000000096b1b0        0x0 build-optee/imx8mn/release/bl31/build_message.o
 .rela.text.dram_enter_retention
                0x000000000096b1b0        0x0 build-optee/imx8mn/release/bl31/build_message.o
 .rela.text.dram_exit_retention
                0x000000000096b1b0        0x0 build-optee/imx8mn/release/bl31/build_message.o
 .rela.text.arm_gicv3_distif_pre_save
                0x000000000096b1b0        0x0 build-optee/imx8mn/release/bl31/build_message.o
 .rela.text.arm_gicv3_distif_post_restore
                0x000000000096b1b0        0x0 build-optee/imx8mn/release/bl31/build_message.o
 .rela.text.gicv3_driver_init
                0x000000000096b1b0        0x0 build-optee/imx8mn/release/bl31/build_message.o
 .rela.text.gicv3_distif_init
                0x000000000096b1b0        0x0 build-optee/imx8mn/release/bl31/build_message.o
 .rela.text.gicv3_rdistif_init
                0x000000000096b1b0        0x0 build-optee/imx8mn/release/bl31/build_message.o
 .rela.text.gicv3_cpuif_enable
                0x000000000096b1b0        0x0 build-optee/imx8mn/release/bl31/build_message.o
 .rela.text.gicv3_cpuif_disable
                0x000000000096b1b0        0x0 build-optee/imx8mn/release/bl31/build_message.o
 .rela.text.gicv3_rdistif_save
                0x000000000096b1b0        0x0 build-optee/imx8mn/release/bl31/build_message.o
 .rela.text.gicv3_rdistif_init_restore
                0x000000000096b1b0        0x0 build-optee/imx8mn/release/bl31/build_message.o
 .rela.text.gicv3_distif_save
                0x000000000096b1b0        0x0 build-optee/imx8mn/release/bl31/build_message.o
 .rela.text.gicv3_distif_init_restore
                0x000000000096b1b0        0x0 build-optee/imx8mn/release/bl31/build_message.o
 .rela.rodata.arm_gic_data
                0x000000000096b1b0        0x0 build-optee/imx8mn/release/bl31/build_message.o
 .rela.text.runtime_svc_init
                0x000000000096b1b0        0x0 build-optee/imx8mn/release/bl31/build_message.o
 .rela.text.cm_el1_sysregs_context_save
                0x000000000096b1b0        0x0 build-optee/imx8mn/release/bl31/build_message.o
 .rela.text.cm_el1_sysregs_context_restore
                0x000000000096b1b0        0x0 build-optee/imx8mn/release/bl31/build_message.o
 .rela.text.psci_do_cpu_off
                0x000000000096b1b0        0x0 build-optee/imx8mn/release/bl31/build_message.o
 .rela.text.psci_cpu_on_start
                0x000000000096b1b0        0x0 build-optee/imx8mn/release/bl31/build_message.o
 .rela.text.psci_cpu_on_finish
                0x000000000096b1b0        0x0 build-optee/imx8mn/release/bl31/build_message.o
 .rela.text.psci_cpu_suspend_start
                0x000000000096b1b0        0x0 build-optee/imx8mn/release/bl31/build_message.o
 .rela.text.psci_cpu_suspend_finish
                0x000000000096b1b0        0x0 build-optee/imx8mn/release/bl31/build_message.o
 .rela.text.psci_validate_power_state
                0x000000000096b1b0        0x0 build-optee/imx8mn/release/bl31/build_message.o
 .rela.text.psci_query_sys_suspend_pwrstate
                0x000000000096b1b0        0x0 build-optee/imx8mn/release/bl31/build_message.o
 .rela.text.psci_get_target_local_pwr_states
                0x000000000096b1b0        0x0 build-optee/imx8mn/release/bl31/build_message.o
 .rela.text.psci_get_parent_pwr_domain_nodes
                0x000000000096b1b0        0x0 build-optee/imx8mn/release/bl31/build_message.o
 .rela.text.psci_set_pwr_domains_to_run
                0x000000000096b1b0        0x0 build-optee/imx8mn/release/bl31/build_message.o
 .rela.text.psci_do_state_coordination
                0x000000000096b1b0        0x0 build-optee/imx8mn/release/bl31/build_message.o
 .rela.text.psci_validate_entry_point
                0x000000000096b1b0        0x0 build-optee/imx8mn/release/bl31/build_message.o
 .rela.text.psci_warmboot_entrypoint
                0x000000000096b1b0        0x0 build-optee/imx8mn/release/bl31/build_message.o
 .rela.text.psci_register_spd_pm_hook
                0x000000000096b1b0        0x0 build-optee/imx8mn/release/bl31/build_message.o
 .rela.text.psci_spd_migrate_info
                0x000000000096b1b0        0x0 build-optee/imx8mn/release/bl31/build_message.o
 .rela.text.psci_cpu_suspend
                0x000000000096b1b0        0x0 build-optee/imx8mn/release/bl31/build_message.o
 .rela.text.psci_migrate
                0x000000000096b1b0        0x0 build-optee/imx8mn/release/bl31/build_message.o
 .rela.text.psci_node_hw_state
                0x000000000096b1b0        0x0 build-optee/imx8mn/release/bl31/build_message.o
 .rela.text.psci_features
                0x000000000096b1b0        0x0 build-optee/imx8mn/release/bl31/build_message.o
 .rela.text.psci_smc_handler
                0x000000000096b1b0        0x0 build-optee/imx8mn/release/bl31/build_message.o
 .rela.text.psci_setup
                0x000000000096b1b0        0x0 build-optee/imx8mn/release/bl31/build_message.o
 .rela.text.psci_system_off
                0x000000000096b1b0        0x0 build-optee/imx8mn/release/bl31/build_message.o
 .rela.text.psci_system_reset
                0x000000000096b1b0        0x0 build-optee/imx8mn/release/bl31/build_message.o
 .rela.text.psci_system_reset2
                0x000000000096b1b0        0x0 build-optee/imx8mn/release/bl31/build_message.o
 .rela.text.psci_mem_protect
                0x000000000096b1b0        0x0 build-optee/imx8mn/release/bl31/build_message.o
 .rela.text.psci_mem_chk_range
                0x000000000096b1b0        0x0 build-optee/imx8mn/release/bl31/build_message.o
 .rela.text.opteed_sel1_interrupt_handler
                0x000000000096b1b0        0x0 build-optee/imx8mn/release/bl31/build_message.o
 .rela.text.opteed_smc_handler
                0x000000000096b1b0        0x0 build-optee/imx8mn/release/bl31/build_message.o
 .rela.text.opteed_setup
                0x000000000096b1b0        0x0 build-optee/imx8mn/release/bl31/build_message.o
 .rela.text.opteed_init
                0x000000000096b1b0        0x0 build-optee/imx8mn/release/bl31/build_message.o
 .rela.text.opteed_system_reset
                0x000000000096b1b0        0x0 build-optee/imx8mn/release/bl31/build_message.o
 .rela.text.opteed_system_off
                0x000000000096b1b0        0x0 build-optee/imx8mn/release/bl31/build_message.o
 .rela.text.opteed_cpu_suspend_finish_handler
                0x000000000096b1b0        0x0 build-optee/imx8mn/release/bl31/build_message.o
 .rela.text.opteed_cpu_suspend_handler
                0x000000000096b1b0        0x0 build-optee/imx8mn/release/bl31/build_message.o
 .rela.text.opteed_cpu_off_handler
                0x000000000096b1b0        0x0 build-optee/imx8mn/release/bl31/build_message.o
 .rela.text.opteed_cpu_on_finish_handler
                0x000000000096b1b0        0x0 build-optee/imx8mn/release/bl31/build_message.o
 .rela.text.console_register
                0x000000000096b1b0        0x0 build-optee/imx8mn/release/bl31/build_message.o
 .rela.text.console_putc
                0x000000000096b1b0        0x0 build-optee/imx8mn/release/bl31/build_message.o
 .rela.text.console_flush
                0x000000000096b1b0        0x0 build-optee/imx8mn/release/bl31/build_message.o
 .rela.text.asm.enable_mmu_direct_el3
                0x000000000096b1b0        0x0 build-optee/imx8mn/release/bl31/build_message.o
 .rela.text.asm.bl31_entrypoint
                0x000000000096b1b0        0x0 build-optee/imx8mn/release/bl31/build_message.o
 .rela.text.asm.smc_handler
                0x000000000096b1b0        0x0 build-optee/imx8mn/release/bl31/build_message.o
 .rela.text.asm._cpu_data_by_index
                0x000000000096b1b0        0x0 build-optee/imx8mn/release/bl31/build_message.o
 .rela.text.asm.get_cpu_ops_ptr
                0x000000000096b1b0        0x0 build-optee/imx8mn/release/bl31/build_message.o
                0x000000000096b1b0                __RELA_END__ = .

stacks          0x000000000096b1c0     0x2c00
                0x000000000096b1c0                __STACKS_START__ = .
 *(tzfw_normal_stacks)
 tzfw_normal_stacks
                0x000000000096b1c0     0x2c00 build-optee/imx8mn/release/bl31/platform_mp_stack.o
                0x000000000096ddc0                __STACKS_END__ = .

.bss            0x000000000096ddc0     0x42b8
                0x000000000096ddc0                __BSS_START__ = .
 *(.bss*)
 .bss.bl32_image_ep_info
                0x000000000096ddc0       0x58 build-optee/imx8mn/release/bl31/imx8mn_bl31_setup.o
 .bss.bl33_image_ep_info
                0x000000000096de18       0x58 build-optee/imx8mn/release/bl31/imx8mn_bl31_setup.o
 .bss.console.3458
                0x000000000096de70       0x30 build-optee/imx8mn/release/bl31/imx8mn_bl31_setup.o
 .bss.pu_domain_status
                0x000000000096dea0        0x4 build-optee/imx8mn/release/bl31/gpc.o
 *fill*         0x000000000096dea4        0x4 
 .bss.timer_ops
                0x000000000096dea8        0x8 build-optee/imx8mn/release/bl31/delay_timer.o
 .bss.ops       0x000000000096deb0       0x10 build-optee/imx8mn/release/bl31/generic_delay_timer.o
 .bss.tf_base_xlat_table
                0x000000000096dec0       0x20 build-optee/imx8mn/release/bl31/xlat_tables_context.o
 .bss.tf_mmap   0x000000000096dee0      0x2a8 build-optee/imx8mn/release/bl31/xlat_tables_context.o
 .bss.wfe_done  0x000000000096e188        0x4 build-optee/imx8mn/release/bl31/dram.o
 *fill*         0x000000000096e18c        0x4 
 .bss.bl32_init
                0x000000000096e190        0x8 build-optee/imx8mn/release/bl31/bl31_main.o
 .bss.intr_type_descs
                0x000000000096e198       0x48 build-optee/imx8mn/release/bl31/interrupt_mgmt.o
 .bss.psci_req_local_pwr_states
                0x000000000096e1e0        0x8 build-optee/imx8mn/release/bl31/psci_common.o
 *fill*         0x000000000096e1e8        0x8 
 .bss.psci_ns_context
                0x000000000096e1f0      0x940 build-optee/imx8mn/release/bl31/psci_setup.o
 *(COMMON)
 COMMON         0x000000000096eb30     0x2880 build-optee/imx8mn/release/bl31/gpc_common.o
                0x000000000096eb30                imx_gicv3_ctx
 COMMON         0x00000000009713b0       0x10 build-optee/imx8mn/release/bl31/tzc380.o
                0x00000000009713b0                tzc380
 COMMON         0x00000000009713c0       0x18 build-optee/imx8mn/release/bl31/xlat_tables_context.o
                0x00000000009713c0                mmu_cfg_params
 COMMON         0x00000000009713d8       0xb0 build-optee/imx8mn/release/bl31/dram.o
                0x00000000009713d8                dfs_lock
                0x00000000009713e0                dram_info
 COMMON         0x0000000000971488        0x8 build-optee/imx8mn/release/bl31/gicv3_main.o
                0x0000000000971488                gicv3_driver_data
 COMMON         0x0000000000971490       0x20 build-optee/imx8mn/release/bl31/plat_imx8_gic.o
                0x0000000000971490                rdistif_base_addrs
 COMMON         0x00000000009714b0       0x80 build-optee/imx8mn/release/bl31/runtime_svc.o
                0x00000000009714b0                rt_svc_descs_indices
 *fill*         0x0000000000971530       0x10 
 COMMON         0x0000000000971540      0x100 build-optee/imx8mn/release/bl31/cpu_data_array.o
                0x0000000000971540                percpu_data
 COMMON         0x0000000000971640       0x50 build-optee/imx8mn/release/bl31/psci_common.o
                0x0000000000971640                psci_cpu_pd_nodes
                0x0000000000971680                psci_plat_pm_ops
                0x0000000000971688                psci_spd_pm
 COMMON         0x0000000000971690        0x4 build-optee/imx8mn/release/bl31/psci_setup.o
                0x0000000000971690                psci_caps
 *fill*         0x0000000000971694        0xc 
 COMMON         0x00000000009716a0      0x9d0 build-optee/imx8mn/release/bl31/opteed_main.o
                0x00000000009716a0                optee_vector_table
                0x00000000009716a8                opteed_rw
                0x00000000009716b0                opteed_sp_context
 COMMON         0x0000000000972070        0x8 build-optee/imx8mn/release/bl31/multi_console.o
                0x0000000000972070                console_list
                0x0000000000972078                __BSS_END__ = .

xlat_table      0x0000000000973000     0x8000
 *(xlat_table)
 xlat_table     0x0000000000973000     0x8000 build-optee/imx8mn/release/bl31/xlat_tables_context.o

coherent_ram    0x000000000097b000     0x1000
                0x000000000097b000                __COHERENT_RAM_START__ = .
 *(bakery_lock)
 bakery_lock    0x000000000097b000        0x8 build-optee/imx8mn/release/bl31/gpc_common.o
                0x000000000097b000                gpc_lock
 bakery_lock    0x000000000097b008       0x20 build-optee/imx8mn/release/bl31/psci_common.o
                0x000000000097b008                psci_locks
 *(tzfw_coherent_mem)
 tzfw_coherent_mem
                0x000000000097b028       0x40 build-optee/imx8mn/release/bl31/psci_common.o
                0x000000000097b028                psci_non_cpu_pd_nodes
                0x000000000097b068                __COHERENT_RAM_END_UNALIGNED__ = .
                0x000000000097c000                . = ALIGN (0x1000)
 *fill*         0x000000000097b068      0xf98 
                0x000000000097c000                __COHERENT_RAM_END__ = .
                0x000000000097c000                __RW_END__ = .
                0x000000000097c000                __BL31_END__ = .
                0x0000000000000001                ASSERT ((. <= 0x980000), BL31 image has exceeded its limit.)
LOAD build-optee/imx8mn/release/bl31/build_message.o
LOAD build-optee/imx8mn/release/bl31/gpc_common.o
LOAD build-optee/imx8mn/release/bl31/hab.o
LOAD build-optee/imx8mn/release/bl31/imx_aipstz.o
LOAD build-optee/imx8mn/release/bl31/imx_rdc.o
LOAD build-optee/imx8mn/release/bl31/imx8m_caam.o
LOAD build-optee/imx8mn/release/bl31/imx8m_csu.o
LOAD build-optee/imx8mn/release/bl31/imx8m_psci_common.o
LOAD build-optee/imx8mn/release/bl31/imx8mn_bl31_setup.o
LOAD build-optee/imx8mn/release/bl31/imx8mn_psci.o
LOAD build-optee/imx8mn/release/bl31/gpc.o
LOAD build-optee/imx8mn/release/bl31/imx8_topology.o
LOAD build-optee/imx8mn/release/bl31/imx_sip_handler.o
LOAD build-optee/imx8mn/release/bl31/imx_sip_svc.o
LOAD build-optee/imx8mn/release/bl31/tzc380.o
LOAD build-optee/imx8mn/release/bl31/delay_timer.o
LOAD build-optee/imx8mn/release/bl31/generic_delay_timer.o
LOAD build-optee/imx8mn/release/bl31/xlat_tables_arch.o
LOAD build-optee/imx8mn/release/bl31/xlat_tables_context.o
LOAD build-optee/imx8mn/release/bl31/xlat_tables_core.o
LOAD build-optee/imx8mn/release/bl31/xlat_tables_utils.o
LOAD build-optee/imx8mn/release/bl31/dram.o
LOAD build-optee/imx8mn/release/bl31/clock.o
LOAD build-optee/imx8mn/release/bl31/dram_retention.o
LOAD build-optee/imx8mn/release/bl31/ddr4_dvfs.o
LOAD build-optee/imx8mn/release/bl31/lpddr4_dvfs.o
LOAD build-optee/imx8mn/release/bl31/gicv3_helpers.o
LOAD build-optee/imx8mn/release/bl31/arm_gicv3_common.o
LOAD build-optee/imx8mn/release/bl31/gic500.o
LOAD build-optee/imx8mn/release/bl31/gicv3_main.o
LOAD build-optee/imx8mn/release/bl31/gic_common.o
LOAD build-optee/imx8mn/release/bl31/plat_gicv3.o
LOAD build-optee/imx8mn/release/bl31/plat_psci_common.o
LOAD build-optee/imx8mn/release/bl31/plat_imx8_gic.o
LOAD build-optee/imx8mn/release/bl31/bl31_main.o
LOAD build-optee/imx8mn/release/bl31/interrupt_mgmt.o
LOAD build-optee/imx8mn/release/bl31/bl31_context_mgmt.o
LOAD build-optee/imx8mn/release/bl31/runtime_svc.o
LOAD build-optee/imx8mn/release/bl31/arm_arch_svc_setup.o
LOAD build-optee/imx8mn/release/bl31/std_svc_setup.o
LOAD build-optee/imx8mn/release/bl31/cpu_data_array.o
LOAD build-optee/imx8mn/release/bl31/context_mgmt.o
LOAD build-optee/imx8mn/release/bl31/errata_report.o
LOAD build-optee/imx8mn/release/bl31/psci_off.o
LOAD build-optee/imx8mn/release/bl31/psci_on.o
LOAD build-optee/imx8mn/release/bl31/psci_suspend.o
LOAD build-optee/imx8mn/release/bl31/psci_common.o
LOAD build-optee/imx8mn/release/bl31/psci_main.o
LOAD build-optee/imx8mn/release/bl31/psci_setup.o
LOAD build-optee/imx8mn/release/bl31/psci_system_off.o
LOAD build-optee/imx8mn/release/bl31/psci_mem_protect.o
LOAD build-optee/imx8mn/release/bl31/bakery_lock_coherent.o
LOAD build-optee/imx8mn/release/bl31/spe.o
LOAD build-optee/imx8mn/release/bl31/sve.o
LOAD build-optee/imx8mn/release/bl31/opteed_common.o
LOAD build-optee/imx8mn/release/bl31/opteed_main.o
LOAD build-optee/imx8mn/release/bl31/opteed_pm.o
LOAD build-optee/imx8mn/release/bl31/bl_common.o
LOAD build-optee/imx8mn/release/bl31/tf_log.o
LOAD build-optee/imx8mn/release/bl31/multi_console.o
LOAD build-optee/imx8mn/release/bl31/plat_bl_common.o
LOAD build-optee/imx8mn/release/bl31/plat_log_common.o
LOAD build-optee/imx8mn/release/bl31/plat_common.o
LOAD build-optee/imx8mn/release/bl31/imx8_helpers.o
LOAD build-optee/imx8mn/release/bl31/imx_uart_console.o
LOAD build-optee/imx8mn/release/bl31/cortex_a53.o
LOAD build-optee/imx8mn/release/bl31/enable_mmu.o
LOAD build-optee/imx8mn/release/bl31/bl31_entrypoint.o
LOAD build-optee/imx8mn/release/bl31/crash_reporting.o
LOAD build-optee/imx8mn/release/bl31/ea_delegate.o
LOAD build-optee/imx8mn/release/bl31/runtime_exceptions.o
LOAD build-optee/imx8mn/release/bl31/dsu_helpers.o
LOAD build-optee/imx8mn/release/bl31/platform_mp_stack.o
LOAD build-optee/imx8mn/release/bl31/cpu_data.o
LOAD build-optee/imx8mn/release/bl31/cpu_helpers.o
LOAD build-optee/imx8mn/release/bl31/spinlock.o
LOAD build-optee/imx8mn/release/bl31/psci_helpers.o
LOAD build-optee/imx8mn/release/bl31/context.o
LOAD build-optee/imx8mn/release/bl31/wa_cve_2017_5715_bpiall.o
LOAD build-optee/imx8mn/release/bl31/wa_cve_2017_5715_mmu.o
LOAD build-optee/imx8mn/release/bl31/opteed_helpers.o
LOAD build-optee/imx8mn/release/bl31/debug.o
LOAD build-optee/imx8mn/release/bl31/cache_helpers.o
LOAD build-optee/imx8mn/release/bl31/misc_helpers.o
LOAD build-optee/imx8mn/release/bl31/platform_helpers.o
LOAD build-optee/imx8mn/release/lib/libc.a
OUTPUT(build-optee/imx8mn/release/bl31/bl31.elf elf64-littleaarch64)

.debug_info     0x0000000000000000    0x2ff5f
 .debug_info    0x0000000000000000       0x83 build-optee/imx8mn/release/bl31/build_message.o
 .debug_info    0x0000000000000083     0x3209 build-optee/imx8mn/release/bl31/gpc_common.o
 .debug_info    0x000000000000328c      0x54b build-optee/imx8mn/release/bl31/hab.o
 .debug_info    0x00000000000037d7      0x224 build-optee/imx8mn/release/bl31/imx_aipstz.o
 .debug_info    0x00000000000039fb      0x2ac build-optee/imx8mn/release/bl31/imx_rdc.o
 .debug_info    0x0000000000003ca7      0x2ef build-optee/imx8mn/release/bl31/imx8m_caam.o
 .debug_info    0x0000000000003f96      0x481 build-optee/imx8mn/release/bl31/imx8m_csu.o
 .debug_info    0x0000000000004417     0x12ec build-optee/imx8mn/release/bl31/imx8m_psci_common.o
 .debug_info    0x0000000000005703     0x16ff build-optee/imx8mn/release/bl31/imx8mn_bl31_setup.o
 .debug_info    0x0000000000006e02      0x771 build-optee/imx8mn/release/bl31/imx8mn_psci.o
 .debug_info    0x0000000000007573     0x1452 build-optee/imx8mn/release/bl31/gpc.o
 .debug_info    0x00000000000089c5      0x21d build-optee/imx8mn/release/bl31/imx8_topology.o
 .debug_info    0x0000000000008be2      0x385 build-optee/imx8mn/release/bl31/imx_sip_handler.o
 .debug_info    0x0000000000008f67      0x5cf build-optee/imx8mn/release/bl31/imx_sip_svc.o
 .debug_info    0x0000000000009536      0x59e build-optee/imx8mn/release/bl31/tzc380.o
 .debug_info    0x0000000000009ad4      0x207 build-optee/imx8mn/release/bl31/delay_timer.o
 .debug_info    0x0000000000009cdb      0x37a build-optee/imx8mn/release/bl31/generic_delay_timer.o
 .debug_info    0x000000000000a055      0xa8a build-optee/imx8mn/release/bl31/xlat_tables_arch.o
 .debug_info    0x000000000000aadf      0x7fd build-optee/imx8mn/release/bl31/xlat_tables_context.o
 .debug_info    0x000000000000b2dc      0xe32 build-optee/imx8mn/release/bl31/xlat_tables_core.o
 .debug_info    0x000000000000c10e      0x934 build-optee/imx8mn/release/bl31/xlat_tables_utils.o
 .debug_info    0x000000000000ca42     0x1018 build-optee/imx8mn/release/bl31/dram.o
 .debug_info    0x000000000000da5a      0xb68 build-optee/imx8mn/release/bl31/clock.o
 .debug_info    0x000000000000e5c2     0x11f3 build-optee/imx8mn/release/bl31/dram_retention.o
 .debug_info    0x000000000000f7b5      0xe1d build-optee/imx8mn/release/bl31/ddr4_dvfs.o
 .debug_info    0x00000000000105d2     0x28b1 build-optee/imx8mn/release/bl31/lpddr4_dvfs.o
 .debug_info    0x0000000000012e83     0x2e0a build-optee/imx8mn/release/bl31/gicv3_helpers.o
 .debug_info    0x0000000000015c8d      0x513 build-optee/imx8mn/release/bl31/arm_gicv3_common.o
 .debug_info    0x00000000000161a0      0x267 build-optee/imx8mn/release/bl31/gic500.o
 .debug_info    0x0000000000016407     0x4726 build-optee/imx8mn/release/bl31/gicv3_main.o
 .debug_info    0x000000000001ab2d     0x198f build-optee/imx8mn/release/bl31/gic_common.o
 .debug_info    0x000000000001c4bc      0xaa3 build-optee/imx8mn/release/bl31/plat_gicv3.o
 .debug_info    0x000000000001cf5f      0x22d build-optee/imx8mn/release/bl31/plat_psci_common.o
 .debug_info    0x000000000001d18c      0x99b build-optee/imx8mn/release/bl31/plat_imx8_gic.o
 .debug_info    0x000000000001db27      0x8a8 build-optee/imx8mn/release/bl31/bl31_main.o
 .debug_info    0x000000000001e3cf      0x7fb build-optee/imx8mn/release/bl31/interrupt_mgmt.o
 .debug_info    0x000000000001ebca      0x487 build-optee/imx8mn/release/bl31/bl31_context_mgmt.o
 .debug_info    0x000000000001f051      0x7f5 build-optee/imx8mn/release/bl31/runtime_svc.o
 .debug_info    0x000000000001f846      0x53c build-optee/imx8mn/release/bl31/arm_arch_svc_setup.o
 .debug_info    0x000000000001fd82      0x8b4 build-optee/imx8mn/release/bl31/std_svc_setup.o
 .debug_info    0x0000000000020636      0x254 build-optee/imx8mn/release/bl31/cpu_data_array.o
 .debug_info    0x000000000002088a     0x14d8 build-optee/imx8mn/release/bl31/context_mgmt.o
 .debug_info    0x0000000000021d62      0xc62 build-optee/imx8mn/release/bl31/psci_off.o
 .debug_info    0x00000000000229c4     0x1082 build-optee/imx8mn/release/bl31/psci_on.o
 .debug_info    0x0000000000023a46     0x1283 build-optee/imx8mn/release/bl31/psci_suspend.o
 .debug_info    0x0000000000024cc9     0x230e build-optee/imx8mn/release/bl31/psci_common.o
 .debug_info    0x0000000000026fd7     0x18d0 build-optee/imx8mn/release/bl31/psci_main.o
 .debug_info    0x00000000000288a7     0x11c1 build-optee/imx8mn/release/bl31/psci_setup.o
 .debug_info    0x0000000000029a68      0x91d build-optee/imx8mn/release/bl31/psci_system_off.o
 .debug_info    0x000000000002a385      0x8c7 build-optee/imx8mn/release/bl31/psci_mem_protect.o
 .debug_info    0x000000000002ac4c      0x71c build-optee/imx8mn/release/bl31/bakery_lock_coherent.o
 .debug_info    0x000000000002b368      0x5b2 build-optee/imx8mn/release/bl31/spe.o
 .debug_info    0x000000000002b91a      0x6ac build-optee/imx8mn/release/bl31/sve.o
 .debug_info    0x000000000002bfc6      0x909 build-optee/imx8mn/release/bl31/opteed_common.o
 .debug_info    0x000000000002c8cf      0xe28 build-optee/imx8mn/release/bl31/opteed_main.o
 .debug_info    0x000000000002d6f7      0xb3c build-optee/imx8mn/release/bl31/opteed_pm.o
 .debug_info    0x000000000002e233      0x6c8 build-optee/imx8mn/release/bl31/bl_common.o
 .debug_info    0x000000000002e8fb      0x2ad build-optee/imx8mn/release/bl31/tf_log.o
 .debug_info    0x000000000002eba8      0x54a build-optee/imx8mn/release/bl31/multi_console.o
 .debug_info    0x000000000002f0f2      0x1d1 build-optee/imx8mn/release/bl31/plat_log_common.o
 .debug_info    0x000000000002f2c3      0x370 build-optee/imx8mn/release/bl31/plat_common.o
 .debug_info    0x000000000002f633       0xdc build-optee/imx8mn/release/lib/libc.a(memcpy.o)
 .debug_info    0x000000000002f70f      0x124 build-optee/imx8mn/release/lib/libc.a(memmove.o)
 .debug_info    0x000000000002f833       0xc7 build-optee/imx8mn/release/lib/libc.a(memset.o)
 .debug_info    0x000000000002f8fa      0x4c9 build-optee/imx8mn/release/lib/libc.a(printf.o)
 .debug_info    0x000000000002fdc3       0xf1 build-optee/imx8mn/release/lib/libc.a(putchar.o)
 .debug_info    0x000000000002feb4       0xab build-optee/imx8mn/release/lib/libc.a(strchr.o)

.debug_abbrev   0x0000000000000000     0x9beb
 .debug_abbrev  0x0000000000000000       0x45 build-optee/imx8mn/release/bl31/build_message.o
 .debug_abbrev  0x0000000000000045      0x53d build-optee/imx8mn/release/bl31/gpc_common.o
 .debug_abbrev  0x0000000000000582      0x156 build-optee/imx8mn/release/bl31/hab.o
 .debug_abbrev  0x00000000000006d8      0x136 build-optee/imx8mn/release/bl31/imx_aipstz.o
 .debug_abbrev  0x000000000000080e      0x155 build-optee/imx8mn/release/bl31/imx_rdc.o
 .debug_abbrev  0x0000000000000963       0xbf build-optee/imx8mn/release/bl31/imx8m_caam.o
 .debug_abbrev  0x0000000000000a22      0x1bf build-optee/imx8mn/release/bl31/imx8m_csu.o
 .debug_abbrev  0x0000000000000be1      0x3ab build-optee/imx8mn/release/bl31/imx8m_psci_common.o
 .debug_abbrev  0x0000000000000f8c      0x37f build-optee/imx8mn/release/bl31/imx8mn_bl31_setup.o
 .debug_abbrev  0x000000000000130b      0x1b8 build-optee/imx8mn/release/bl31/imx8mn_psci.o
 .debug_abbrev  0x00000000000014c3      0x2f7 build-optee/imx8mn/release/bl31/gpc.o
 .debug_abbrev  0x00000000000017ba       0xf7 build-optee/imx8mn/release/bl31/imx8_topology.o
 .debug_abbrev  0x00000000000018b1      0x186 build-optee/imx8mn/release/bl31/imx_sip_handler.o
 .debug_abbrev  0x0000000000001a37      0x236 build-optee/imx8mn/release/bl31/imx_sip_svc.o
 .debug_abbrev  0x0000000000001c6d      0x17e build-optee/imx8mn/release/bl31/tzc380.o
 .debug_abbrev  0x0000000000001deb      0x117 build-optee/imx8mn/release/bl31/delay_timer.o
 .debug_abbrev  0x0000000000001f02      0x1fa build-optee/imx8mn/release/bl31/generic_delay_timer.o
 .debug_abbrev  0x00000000000020fc      0x2c9 build-optee/imx8mn/release/bl31/xlat_tables_arch.o
 .debug_abbrev  0x00000000000023c5      0x1cb build-optee/imx8mn/release/bl31/xlat_tables_context.o
 .debug_abbrev  0x0000000000002590      0x351 build-optee/imx8mn/release/bl31/xlat_tables_core.o
 .debug_abbrev  0x00000000000028e1      0x2a6 build-optee/imx8mn/release/bl31/xlat_tables_utils.o
 .debug_abbrev  0x0000000000002b87      0x4c8 build-optee/imx8mn/release/bl31/dram.o
 .debug_abbrev  0x000000000000304f      0x15f build-optee/imx8mn/release/bl31/clock.o
 .debug_abbrev  0x00000000000031ae      0x1cb build-optee/imx8mn/release/bl31/dram_retention.o
 .debug_abbrev  0x0000000000003379      0x20b build-optee/imx8mn/release/bl31/ddr4_dvfs.o
 .debug_abbrev  0x0000000000003584      0x234 build-optee/imx8mn/release/bl31/lpddr4_dvfs.o
 .debug_abbrev  0x00000000000037b8      0x42d build-optee/imx8mn/release/bl31/gicv3_helpers.o
 .debug_abbrev  0x0000000000003be5      0x1fb build-optee/imx8mn/release/bl31/arm_gicv3_common.o
 .debug_abbrev  0x0000000000003de0      0x124 build-optee/imx8mn/release/bl31/gic500.o
 .debug_abbrev  0x0000000000003f04      0x4f8 build-optee/imx8mn/release/bl31/gicv3_main.o
 .debug_abbrev  0x00000000000043fc      0x2a4 build-optee/imx8mn/release/bl31/gic_common.o
 .debug_abbrev  0x00000000000046a0      0x2eb build-optee/imx8mn/release/bl31/plat_gicv3.o
 .debug_abbrev  0x000000000000498b       0xe7 build-optee/imx8mn/release/bl31/plat_psci_common.o
 .debug_abbrev  0x0000000000004a72      0x2e1 build-optee/imx8mn/release/bl31/plat_imx8_gic.o
 .debug_abbrev  0x0000000000004d53      0x2e3 build-optee/imx8mn/release/bl31/bl31_main.o
 .debug_abbrev  0x0000000000005036      0x22e build-optee/imx8mn/release/bl31/interrupt_mgmt.o
 .debug_abbrev  0x0000000000005264      0x1ec build-optee/imx8mn/release/bl31/bl31_context_mgmt.o
 .debug_abbrev  0x0000000000005450      0x2e7 build-optee/imx8mn/release/bl31/runtime_svc.o
 .debug_abbrev  0x0000000000005737      0x25a build-optee/imx8mn/release/bl31/arm_arch_svc_setup.o
 .debug_abbrev  0x0000000000005991      0x300 build-optee/imx8mn/release/bl31/std_svc_setup.o
 .debug_abbrev  0x0000000000005c91      0x10c build-optee/imx8mn/release/bl31/cpu_data_array.o
 .debug_abbrev  0x0000000000005d9d      0x4c3 build-optee/imx8mn/release/bl31/context_mgmt.o
 .debug_abbrev  0x0000000000006260      0x322 build-optee/imx8mn/release/bl31/psci_off.o
 .debug_abbrev  0x0000000000006582      0x347 build-optee/imx8mn/release/bl31/psci_on.o
 .debug_abbrev  0x00000000000068c9      0x40a build-optee/imx8mn/release/bl31/psci_suspend.o
 .debug_abbrev  0x0000000000006cd3      0x52b build-optee/imx8mn/release/bl31/psci_common.o
 .debug_abbrev  0x00000000000071fe      0x4c0 build-optee/imx8mn/release/bl31/psci_main.o
 .debug_abbrev  0x00000000000076be      0x496 build-optee/imx8mn/release/bl31/psci_setup.o
 .debug_abbrev  0x0000000000007b54      0x21c build-optee/imx8mn/release/bl31/psci_system_off.o
 .debug_abbrev  0x0000000000007d70      0x1f9 build-optee/imx8mn/release/bl31/psci_mem_protect.o
 .debug_abbrev  0x0000000000007f69      0x29f build-optee/imx8mn/release/bl31/bakery_lock_coherent.o
 .debug_abbrev  0x0000000000008208      0x250 build-optee/imx8mn/release/bl31/spe.o
 .debug_abbrev  0x0000000000008458      0x226 build-optee/imx8mn/release/bl31/sve.o
 .debug_abbrev  0x000000000000867e      0x30f build-optee/imx8mn/release/bl31/opteed_common.o
 .debug_abbrev  0x000000000000898d      0x2e7 build-optee/imx8mn/release/bl31/opteed_main.o
 .debug_abbrev  0x0000000000008c74      0x2a9 build-optee/imx8mn/release/bl31/opteed_pm.o
 .debug_abbrev  0x0000000000008f1d      0x1ef build-optee/imx8mn/release/bl31/bl_common.o
 .debug_abbrev  0x000000000000910c      0x13c build-optee/imx8mn/release/bl31/tf_log.o
 .debug_abbrev  0x0000000000009248      0x22d build-optee/imx8mn/release/bl31/multi_console.o
 .debug_abbrev  0x0000000000009475       0xd7 build-optee/imx8mn/release/bl31/plat_log_common.o
 .debug_abbrev  0x000000000000954c      0x166 build-optee/imx8mn/release/bl31/plat_common.o
 .debug_abbrev  0x00000000000096b2       0xa1 build-optee/imx8mn/release/lib/libc.a(memcpy.o)
 .debug_abbrev  0x0000000000009753       0xbc build-optee/imx8mn/release/lib/libc.a(memmove.o)
 .debug_abbrev  0x000000000000980f       0xb4 build-optee/imx8mn/release/lib/libc.a(memset.o)
 .debug_abbrev  0x00000000000098c3      0x1fd build-optee/imx8mn/release/lib/libc.a(printf.o)
 .debug_abbrev  0x0000000000009ac0       0x9a build-optee/imx8mn/release/lib/libc.a(putchar.o)
 .debug_abbrev  0x0000000000009b5a       0x91 build-optee/imx8mn/release/lib/libc.a(strchr.o)

.debug_aranges  0x0000000000000000     0x1ee0
 .debug_aranges
                0x0000000000000000       0x20 build-optee/imx8mn/release/bl31/build_message.o
 .debug_aranges
                0x0000000000000020      0x120 build-optee/imx8mn/release/bl31/gpc_common.o
 .debug_aranges
                0x0000000000000140       0x30 build-optee/imx8mn/release/bl31/hab.o
 .debug_aranges
                0x0000000000000170       0x30 build-optee/imx8mn/release/bl31/imx_aipstz.o
 .debug_aranges
                0x00000000000001a0       0x30 build-optee/imx8mn/release/bl31/imx_rdc.o
 .debug_aranges
                0x00000000000001d0       0x30 build-optee/imx8mn/release/bl31/imx8m_caam.o
 .debug_aranges
                0x0000000000000200       0x30 build-optee/imx8mn/release/bl31/imx8m_csu.o
 .debug_aranges
                0x0000000000000230       0xe0 build-optee/imx8mn/release/bl31/imx8m_psci_common.o
 .debug_aranges
                0x0000000000000310       0x70 build-optee/imx8mn/release/bl31/imx8mn_bl31_setup.o
 .debug_aranges
                0x0000000000000380       0x30 build-optee/imx8mn/release/bl31/imx8mn_psci.o
 .debug_aranges
                0x00000000000003b0       0x60 build-optee/imx8mn/release/bl31/gpc.o
 .debug_aranges
                0x0000000000000410       0x40 build-optee/imx8mn/release/bl31/imx8_topology.o
 .debug_aranges
                0x0000000000000450       0x30 build-optee/imx8mn/release/bl31/imx_sip_handler.o
 .debug_aranges
                0x0000000000000480       0x40 build-optee/imx8mn/release/bl31/imx_sip_svc.o
 .debug_aranges
                0x00000000000004c0       0x50 build-optee/imx8mn/release/bl31/tzc380.o
 .debug_aranges
                0x0000000000000510       0x50 build-optee/imx8mn/release/bl31/delay_timer.o
 .debug_aranges
                0x0000000000000560       0x50 build-optee/imx8mn/release/bl31/generic_delay_timer.o
 .debug_aranges
                0x00000000000005b0       0xc0 build-optee/imx8mn/release/bl31/xlat_tables_arch.o
 .debug_aranges
                0x0000000000000670       0xc0 build-optee/imx8mn/release/bl31/xlat_tables_context.o
 .debug_aranges
                0x0000000000000730       0x80 build-optee/imx8mn/release/bl31/xlat_tables_core.o
 .debug_aranges
                0x00000000000007b0       0x70 build-optee/imx8mn/release/bl31/xlat_tables_utils.o
 .debug_aranges
                0x0000000000000820       0x80 build-optee/imx8mn/release/bl31/dram.o
 .debug_aranges
                0x00000000000008a0       0x70 build-optee/imx8mn/release/bl31/clock.o
 .debug_aranges
                0x0000000000000910       0x40 build-optee/imx8mn/release/bl31/dram_retention.o
 .debug_aranges
                0x0000000000000950       0x60 build-optee/imx8mn/release/bl31/ddr4_dvfs.o
 .debug_aranges
                0x00000000000009b0       0x30 build-optee/imx8mn/release/bl31/lpddr4_dvfs.o
 .debug_aranges
                0x00000000000009e0      0x1e0 build-optee/imx8mn/release/bl31/gicv3_helpers.o
 .debug_aranges
                0x0000000000000bc0       0x40 build-optee/imx8mn/release/bl31/arm_gicv3_common.o
 .debug_aranges
                0x0000000000000c00       0x40 build-optee/imx8mn/release/bl31/gic500.o
 .debug_aranges
                0x0000000000000c40      0x1d0 build-optee/imx8mn/release/bl31/gicv3_main.o
 .debug_aranges
                0x0000000000000e10      0x220 build-optee/imx8mn/release/bl31/gic_common.o
 .debug_aranges
                0x0000000000001030      0x180 build-optee/imx8mn/release/bl31/plat_gicv3.o
 .debug_aranges
                0x00000000000011b0       0x30 build-optee/imx8mn/release/bl31/plat_psci_common.o
 .debug_aranges
                0x00000000000011e0       0xa0 build-optee/imx8mn/release/bl31/plat_imx8_gic.o
 .debug_aranges
                0x0000000000001280       0xa0 build-optee/imx8mn/release/bl31/bl31_main.o
 .debug_aranges
                0x0000000000001320       0x90 build-optee/imx8mn/release/bl31/interrupt_mgmt.o
 .debug_aranges
                0x00000000000013b0       0x60 build-optee/imx8mn/release/bl31/bl31_context_mgmt.o
 .debug_aranges
                0x0000000000001410       0x40 build-optee/imx8mn/release/bl31/runtime_svc.o
 .debug_aranges
                0x0000000000001450       0x30 build-optee/imx8mn/release/bl31/arm_arch_svc_setup.o
 .debug_aranges
                0x0000000000001480       0x40 build-optee/imx8mn/release/bl31/std_svc_setup.o
 .debug_aranges
                0x00000000000014c0       0x20 build-optee/imx8mn/release/bl31/cpu_data_array.o
 .debug_aranges
                0x00000000000014e0       0xe0 build-optee/imx8mn/release/bl31/context_mgmt.o
 .debug_aranges
                0x00000000000015c0       0x30 build-optee/imx8mn/release/bl31/psci_off.o
 .debug_aranges
                0x00000000000015f0       0x40 build-optee/imx8mn/release/bl31/psci_on.o
 .debug_aranges
                0x0000000000001630       0x40 build-optee/imx8mn/release/bl31/psci_suspend.o
 .debug_aranges
                0x0000000000001670      0x170 build-optee/imx8mn/release/bl31/psci_common.o
 .debug_aranges
                0x00000000000017e0       0xe0 build-optee/imx8mn/release/bl31/psci_main.o
 .debug_aranges
                0x00000000000018c0       0x50 build-optee/imx8mn/release/bl31/psci_setup.o
 .debug_aranges
                0x0000000000001910       0x50 build-optee/imx8mn/release/bl31/psci_system_off.o
 .debug_aranges
                0x0000000000001960       0x40 build-optee/imx8mn/release/bl31/psci_mem_protect.o
 .debug_aranges
                0x00000000000019a0       0x40 build-optee/imx8mn/release/bl31/bakery_lock_coherent.o
 .debug_aranges
                0x00000000000019e0       0x60 build-optee/imx8mn/release/bl31/spe.o
 .debug_aranges
                0x0000000000001a40       0x60 build-optee/imx8mn/release/bl31/sve.o
 .debug_aranges
                0x0000000000001aa0       0x50 build-optee/imx8mn/release/bl31/opteed_common.o
 .debug_aranges
                0x0000000000001af0       0x60 build-optee/imx8mn/release/bl31/opteed_main.o
 .debug_aranges
                0x0000000000001b50       0xa0 build-optee/imx8mn/release/bl31/opteed_pm.o
 .debug_aranges
                0x0000000000001bf0       0x50 build-optee/imx8mn/release/bl31/bl_common.o
 .debug_aranges
                0x0000000000001c40       0x40 build-optee/imx8mn/release/bl31/tf_log.o
 .debug_aranges
                0x0000000000001c80       0xa0 build-optee/imx8mn/release/bl31/multi_console.o
 .debug_aranges
                0x0000000000001d20       0x30 build-optee/imx8mn/release/bl31/plat_log_common.o
 .debug_aranges
                0x0000000000001d50       0x50 build-optee/imx8mn/release/bl31/plat_common.o
 .debug_aranges
                0x0000000000001da0       0x30 build-optee/imx8mn/release/lib/libc.a(memcpy.o)
 .debug_aranges
                0x0000000000001dd0       0x30 build-optee/imx8mn/release/lib/libc.a(memmove.o)
 .debug_aranges
                0x0000000000001e00       0x30 build-optee/imx8mn/release/lib/libc.a(memset.o)
 .debug_aranges
                0x0000000000001e30       0x50 build-optee/imx8mn/release/lib/libc.a(printf.o)
 .debug_aranges
                0x0000000000001e80       0x30 build-optee/imx8mn/release/lib/libc.a(putchar.o)
 .debug_aranges
                0x0000000000001eb0       0x30 build-optee/imx8mn/release/lib/libc.a(strchr.o)

.debug_line     0x0000000000000000    0x14788
 .debug_line    0x0000000000000000       0x28 build-optee/imx8mn/release/bl31/build_message.o
 .debug_line    0x0000000000000028     0x180f build-optee/imx8mn/release/bl31/gpc_common.o
 .debug_line    0x0000000000001837      0x192 build-optee/imx8mn/release/bl31/hab.o
 .debug_line    0x00000000000019c9      0x165 build-optee/imx8mn/release/bl31/imx_aipstz.o
 .debug_line    0x0000000000001b2e      0x1b9 build-optee/imx8mn/release/bl31/imx_rdc.o
 .debug_line    0x0000000000001ce7      0x172 build-optee/imx8mn/release/bl31/imx8m_caam.o
 .debug_line    0x0000000000001e59      0x304 build-optee/imx8mn/release/bl31/imx8m_csu.o
 .debug_line    0x000000000000215d      0x832 build-optee/imx8mn/release/bl31/imx8m_psci_common.o
 .debug_line    0x000000000000298f      0x5a6 build-optee/imx8mn/release/bl31/imx8mn_bl31_setup.o
 .debug_line    0x0000000000002f35      0x155 build-optee/imx8mn/release/bl31/imx8mn_psci.o
 .debug_line    0x000000000000308a      0xb4f build-optee/imx8mn/release/bl31/gpc.o
 .debug_line    0x0000000000003bd9      0x100 build-optee/imx8mn/release/bl31/imx8_topology.o
 .debug_line    0x0000000000003cd9      0x176 build-optee/imx8mn/release/bl31/imx_sip_handler.o
 .debug_line    0x0000000000003e4f      0x1ff build-optee/imx8mn/release/bl31/imx_sip_svc.o
 .debug_line    0x000000000000404e      0x1bc build-optee/imx8mn/release/bl31/tzc380.o
 .debug_line    0x000000000000420a      0x143 build-optee/imx8mn/release/bl31/delay_timer.o
 .debug_line    0x000000000000434d      0x20f build-optee/imx8mn/release/bl31/generic_delay_timer.o
 .debug_line    0x000000000000455c      0x54c build-optee/imx8mn/release/bl31/xlat_tables_arch.o
 .debug_line    0x0000000000004aa8      0x2ec build-optee/imx8mn/release/bl31/xlat_tables_context.o
 .debug_line    0x0000000000004d94      0x8b9 build-optee/imx8mn/release/bl31/xlat_tables_core.o
 .debug_line    0x000000000000564d      0x559 build-optee/imx8mn/release/bl31/xlat_tables_utils.o
 .debug_line    0x0000000000005ba6      0x9ad build-optee/imx8mn/release/bl31/dram.o
 .debug_line    0x0000000000006553      0x4d4 build-optee/imx8mn/release/bl31/clock.o
 .debug_line    0x0000000000006a27      0xa23 build-optee/imx8mn/release/bl31/dram_retention.o
 .debug_line    0x000000000000744a      0x7fb build-optee/imx8mn/release/bl31/ddr4_dvfs.o
 .debug_line    0x0000000000007c45     0x12ff build-optee/imx8mn/release/bl31/lpddr4_dvfs.o
 .debug_line    0x0000000000008f44     0x1333 build-optee/imx8mn/release/bl31/gicv3_helpers.o
 .debug_line    0x000000000000a277      0x2b0 build-optee/imx8mn/release/bl31/arm_gicv3_common.o
 .debug_line    0x000000000000a527       0xec build-optee/imx8mn/release/bl31/gic500.o
 .debug_line    0x000000000000a613     0x1d0c build-optee/imx8mn/release/bl31/gicv3_main.o
 .debug_line    0x000000000000c31f      0xa3f build-optee/imx8mn/release/bl31/gic_common.o
 .debug_line    0x000000000000cd5e      0x4e0 build-optee/imx8mn/release/bl31/plat_gicv3.o
 .debug_line    0x000000000000d23e       0xe4 build-optee/imx8mn/release/bl31/plat_psci_common.o
 .debug_line    0x000000000000d322      0x33c build-optee/imx8mn/release/bl31/plat_imx8_gic.o
 .debug_line    0x000000000000d65e      0x363 build-optee/imx8mn/release/bl31/bl31_main.o
 .debug_line    0x000000000000d9c1      0x3ba build-optee/imx8mn/release/bl31/interrupt_mgmt.o
 .debug_line    0x000000000000dd7b      0x1a4 build-optee/imx8mn/release/bl31/bl31_context_mgmt.o
 .debug_line    0x000000000000df1f      0x33b build-optee/imx8mn/release/bl31/runtime_svc.o
 .debug_line    0x000000000000e25a      0x1b8 build-optee/imx8mn/release/bl31/arm_arch_svc_setup.o
 .debug_line    0x000000000000e412      0x2a1 build-optee/imx8mn/release/bl31/std_svc_setup.o
 .debug_line    0x000000000000e6b3       0xc6 build-optee/imx8mn/release/bl31/cpu_data_array.o
 .debug_line    0x000000000000e779      0x7ea build-optee/imx8mn/release/bl31/context_mgmt.o
 .debug_line    0x000000000000ef63      0x2bc build-optee/imx8mn/release/bl31/psci_off.o
 .debug_line    0x000000000000f21f      0x42c build-optee/imx8mn/release/bl31/psci_on.o
 .debug_line    0x000000000000f64b      0x442 build-optee/imx8mn/release/bl31/psci_suspend.o
 .debug_line    0x000000000000fa8d     0x114a build-optee/imx8mn/release/bl31/psci_common.o
 .debug_line    0x0000000000010bd7      0x8bf build-optee/imx8mn/release/bl31/psci_main.o
 .debug_line    0x0000000000011496      0x681 build-optee/imx8mn/release/bl31/psci_setup.o
 .debug_line    0x0000000000011b17      0x250 build-optee/imx8mn/release/bl31/psci_system_off.o
 .debug_line    0x0000000000011d67      0x1c1 build-optee/imx8mn/release/bl31/psci_mem_protect.o
 .debug_line    0x0000000000011f28      0x3c9 build-optee/imx8mn/release/bl31/bakery_lock_coherent.o
 .debug_line    0x00000000000122f1      0x2d7 build-optee/imx8mn/release/bl31/spe.o
 .debug_line    0x00000000000125c8      0x331 build-optee/imx8mn/release/bl31/sve.o
 .debug_line    0x00000000000128f9      0x299 build-optee/imx8mn/release/bl31/opteed_common.o
 .debug_line    0x0000000000012b92      0x49f build-optee/imx8mn/release/bl31/opteed_main.o
 .debug_line    0x0000000000013031      0x444 build-optee/imx8mn/release/bl31/opteed_pm.o
 .debug_line    0x0000000000013475      0x385 build-optee/imx8mn/release/bl31/bl_common.o
 .debug_line    0x00000000000137fa      0x189 build-optee/imx8mn/release/bl31/tf_log.o
 .debug_line    0x0000000000013983      0x451 build-optee/imx8mn/release/bl31/multi_console.o
 .debug_line    0x0000000000013dd4       0xb4 build-optee/imx8mn/release/bl31/plat_log_common.o
 .debug_line    0x0000000000013e88      0x170 build-optee/imx8mn/release/bl31/plat_common.o
 .debug_line    0x0000000000013ff8       0x8f build-optee/imx8mn/release/lib/libc.a(memcpy.o)
 .debug_line    0x0000000000014087       0xd3 build-optee/imx8mn/release/lib/libc.a(memmove.o)
 .debug_line    0x000000000001415a       0x89 build-optee/imx8mn/release/lib/libc.a(memset.o)
 .debug_line    0x00000000000141e3      0x4a6 build-optee/imx8mn/release/lib/libc.a(printf.o)
 .debug_line    0x0000000000014689       0x7f build-optee/imx8mn/release/lib/libc.a(putchar.o)
 .debug_line    0x0000000000014708       0x80 build-optee/imx8mn/release/lib/libc.a(strchr.o)

.debug_str      0x0000000000000000     0x64f7
 .debug_str     0x0000000000000000      0x146 build-optee/imx8mn/release/bl31/build_message.o
                                        0x15d (size before relaxing)
 .debug_str     0x0000000000000146      0x751 build-optee/imx8mn/release/bl31/gpc_common.o
                                        0x927 (size before relaxing)
 .debug_str     0x0000000000000897      0x2b2 build-optee/imx8mn/release/bl31/hab.o
                                        0x5e7 (size before relaxing)
 .debug_str     0x0000000000000b49       0x4e build-optee/imx8mn/release/bl31/imx_aipstz.o
                                        0x247 (size before relaxing)
 .debug_str     0x0000000000000b97       0x93 build-optee/imx8mn/release/bl31/imx_rdc.o
                                        0x2a2 (size before relaxing)
 .debug_str     0x0000000000000c2a       0x33 build-optee/imx8mn/release/bl31/imx8m_caam.o
                                        0x227 (size before relaxing)
 .debug_str     0x0000000000000c5d       0x82 build-optee/imx8mn/release/bl31/imx8m_csu.o
                                        0x2b7 (size before relaxing)
 .debug_str     0x0000000000000cdf      0x3dd build-optee/imx8mn/release/bl31/imx8m_psci_common.o
                                        0xa00 (size before relaxing)
 .debug_str     0x00000000000010bc      0xe4d build-optee/imx8mn/release/bl31/imx8mn_bl31_setup.o
                                       0x1602 (size before relaxing)
 .debug_str     0x0000000000001f09      0x14d build-optee/imx8mn/release/bl31/imx8mn_psci.o
                                        0x727 (size before relaxing)
 .debug_str     0x0000000000002056       0xe2 build-optee/imx8mn/release/bl31/gpc.o
                                        0x675 (size before relaxing)
 .debug_str     0x0000000000002138       0x84 build-optee/imx8mn/release/bl31/imx8_topology.o
                                        0x341 (size before relaxing)
 .debug_str     0x00000000000021bc       0x74 build-optee/imx8mn/release/bl31/imx_sip_handler.o
                                        0x3b7 (size before relaxing)
 .debug_str     0x0000000000002230       0xb9 build-optee/imx8mn/release/bl31/imx_sip_svc.o
                                        0x51b (size before relaxing)
 .debug_str     0x00000000000022e9      0x109 build-optee/imx8mn/release/bl31/tzc380.o
                                        0x353 (size before relaxing)
 .debug_str     0x00000000000023f2       0x76 build-optee/imx8mn/release/bl31/delay_timer.o
                                        0x277 (size before relaxing)
 .debug_str     0x0000000000002468       0x48 build-optee/imx8mn/release/bl31/generic_delay_timer.o
                                        0x38e (size before relaxing)
 .debug_str     0x00000000000024b0      0x2b4 build-optee/imx8mn/release/bl31/xlat_tables_arch.o
                                        0x51a (size before relaxing)
 .debug_str     0x0000000000002764      0x1ab build-optee/imx8mn/release/bl31/xlat_tables_context.o
                                        0x509 (size before relaxing)
 .debug_str     0x000000000000290f      0x2ad build-optee/imx8mn/release/bl31/xlat_tables_core.o
                                        0x671 (size before relaxing)
 .debug_str     0x0000000000002bbc      0x133 build-optee/imx8mn/release/bl31/xlat_tables_utils.o
                                        0x520 (size before relaxing)
 .debug_str     0x0000000000002cef      0x1c0 build-optee/imx8mn/release/bl31/dram.o
                                        0x7e5 (size before relaxing)
 .debug_str     0x0000000000002eaf       0x85 build-optee/imx8mn/release/bl31/clock.o
                                        0x2c4 (size before relaxing)
 .debug_str     0x0000000000002f34       0x38 build-optee/imx8mn/release/bl31/dram_retention.o
                                        0x3eb (size before relaxing)
 .debug_str     0x0000000000002f6c       0x57 build-optee/imx8mn/release/bl31/ddr4_dvfs.o
                                        0x405 (size before relaxing)
 .debug_str     0x0000000000002fc3       0x89 build-optee/imx8mn/release/bl31/lpddr4_dvfs.o
                                        0x423 (size before relaxing)
 .debug_str     0x000000000000304c      0x5f6 build-optee/imx8mn/release/bl31/gicv3_helpers.o
                                        0x878 (size before relaxing)
 .debug_str     0x0000000000003642       0x6d build-optee/imx8mn/release/bl31/arm_gicv3_common.o
                                        0x387 (size before relaxing)
 .debug_str     0x00000000000036af       0x1c build-optee/imx8mn/release/bl31/gic500.o
                                        0x352 (size before relaxing)
 .debug_str     0x00000000000036cb      0x7ef build-optee/imx8mn/release/bl31/gicv3_main.o
                                       0x1219 (size before relaxing)
 .debug_str     0x0000000000003eba       0xc1 build-optee/imx8mn/release/bl31/gic_common.o
                                        0x4b5 (size before relaxing)
 .debug_str     0x0000000000003f7b      0x2bc build-optee/imx8mn/release/bl31/plat_gicv3.o
                                        0x77a (size before relaxing)
 .debug_str     0x0000000000004237       0x43 build-optee/imx8mn/release/bl31/plat_psci_common.o
                                        0x316 (size before relaxing)
 .debug_str     0x000000000000427a       0x72 build-optee/imx8mn/release/bl31/plat_imx8_gic.o
                                        0x740 (size before relaxing)
 .debug_str     0x00000000000042ec      0x195 build-optee/imx8mn/release/bl31/bl31_main.o
                                        0x657 (size before relaxing)
 .debug_str     0x0000000000004481      0x1b6 build-optee/imx8mn/release/bl31/interrupt_mgmt.o
                                        0x4e0 (size before relaxing)
 .debug_str     0x0000000000004637       0xfb build-optee/imx8mn/release/bl31/bl31_context_mgmt.o
                                        0x44f (size before relaxing)
 .debug_str     0x0000000000004732       0x8c build-optee/imx8mn/release/bl31/runtime_svc.o
                                        0x545 (size before relaxing)
 .debug_str     0x00000000000047be       0x95 build-optee/imx8mn/release/bl31/arm_arch_svc_setup.o
                                        0x505 (size before relaxing)
 .debug_str     0x0000000000004853       0xee build-optee/imx8mn/release/bl31/std_svc_setup.o
                                        0x6bb (size before relaxing)
 .debug_str     0x0000000000004941       0x21 build-optee/imx8mn/release/bl31/cpu_data_array.o
                                        0x3a8 (size before relaxing)
 .debug_str     0x0000000000004962      0x47f build-optee/imx8mn/release/bl31/context_mgmt.o
                                        0xa23 (size before relaxing)
 .debug_str     0x0000000000004de1      0x28e build-optee/imx8mn/release/bl31/psci_off.o
                                        0x8fe (size before relaxing)
 .debug_str     0x000000000000506f      0x10b build-optee/imx8mn/release/bl31/psci_on.o
                                        0xbf8 (size before relaxing)
 .debug_str     0x000000000000517a      0x12e build-optee/imx8mn/release/bl31/psci_suspend.o
                                        0xcfb (size before relaxing)
 .debug_str     0x00000000000052a8      0x440 build-optee/imx8mn/release/bl31/psci_common.o
                                        0xf86 (size before relaxing)
 .debug_str     0x00000000000056e8      0x197 build-optee/imx8mn/release/bl31/psci_main.o
                                        0xc1c (size before relaxing)
 .debug_str     0x000000000000587f      0x169 build-optee/imx8mn/release/bl31/psci_setup.o
                                        0xc27 (size before relaxing)
 .debug_str     0x00000000000059e8       0x30 build-optee/imx8mn/release/bl31/psci_system_off.o
                                        0x7f1 (size before relaxing)
 .debug_str     0x0000000000005a18       0x23 build-optee/imx8mn/release/bl31/psci_mem_protect.o
                                        0x7ae (size before relaxing)
 .debug_str     0x0000000000005a3b       0xd0 build-optee/imx8mn/release/bl31/bakery_lock_coherent.o
                                        0x4d3 (size before relaxing)
 .debug_str     0x0000000000005b0b       0xfb build-optee/imx8mn/release/bl31/spe.o
                                        0x31e (size before relaxing)
 .debug_str     0x0000000000005c06       0xf7 build-optee/imx8mn/release/bl31/sve.o
                                        0x32f (size before relaxing)
 .debug_str     0x0000000000005cfd      0x1cd build-optee/imx8mn/release/bl31/opteed_common.o
                                        0x743 (size before relaxing)
 .debug_str     0x0000000000005eca      0x103 build-optee/imx8mn/release/bl31/opteed_main.o
                                        0x96c (size before relaxing)
 .debug_str     0x0000000000005fcd      0x115 build-optee/imx8mn/release/bl31/opteed_pm.o
                                        0x7b0 (size before relaxing)
 .debug_str     0x00000000000060e2      0x13e build-optee/imx8mn/release/bl31/bl_common.o
                                        0x503 (size before relaxing)
 .debug_str     0x0000000000006220       0x8f build-optee/imx8mn/release/bl31/tf_log.o
                                        0x35a (size before relaxing)
 .debug_str     0x00000000000062af      0x104 build-optee/imx8mn/release/bl31/multi_console.o
                                        0x339 (size before relaxing)
 .debug_str     0x00000000000063b3       0x2e build-optee/imx8mn/release/bl31/plat_log_common.o
                                        0x2fc (size before relaxing)
 .debug_str     0x00000000000063e1       0x5e build-optee/imx8mn/release/bl31/plat_common.o
                                        0x3a9 (size before relaxing)
 .debug_str     0x000000000000643f       0x12 build-optee/imx8mn/release/lib/libc.a(memcpy.o)
                                        0x169 (size before relaxing)
 .debug_str     0x0000000000006451       0x13 build-optee/imx8mn/release/lib/libc.a(memmove.o)
                                        0x169 (size before relaxing)
 .debug_str     0x0000000000006464       0x12 build-optee/imx8mn/release/lib/libc.a(memset.o)
                                        0x16f (size before relaxing)
 .debug_str     0x0000000000006476       0x5c build-optee/imx8mn/release/lib/libc.a(printf.o)
                                        0x28d (size before relaxing)
 .debug_str     0x00000000000064d2       0x13 build-optee/imx8mn/release/lib/libc.a(putchar.o)
                                        0x1f5 (size before relaxing)
 .debug_str     0x00000000000064e5       0x12 build-optee/imx8mn/release/lib/libc.a(strchr.o)
                                        0x162 (size before relaxing)

.comment        0x0000000000000000       0x11
 .comment       0x0000000000000000       0x11 build-optee/imx8mn/release/bl31/build_message.o
                                         0x12 (size before relaxing)
 .comment       0x0000000000000011       0x12 build-optee/imx8mn/release/bl31/gpc_common.o
 .comment       0x0000000000000011       0x12 build-optee/imx8mn/release/bl31/hab.o
 .comment       0x0000000000000011       0x12 build-optee/imx8mn/release/bl31/imx_aipstz.o
 .comment       0x0000000000000011       0x12 build-optee/imx8mn/release/bl31/imx_rdc.o
 .comment       0x0000000000000011       0x12 build-optee/imx8mn/release/bl31/imx8m_caam.o
 .comment       0x0000000000000011       0x12 build-optee/imx8mn/release/bl31/imx8m_csu.o
 .comment       0x0000000000000011       0x12 build-optee/imx8mn/release/bl31/imx8m_psci_common.o
 .comment       0x0000000000000011       0x12 build-optee/imx8mn/release/bl31/imx8mn_bl31_setup.o
 .comment       0x0000000000000011       0x12 build-optee/imx8mn/release/bl31/imx8mn_psci.o
 .comment       0x0000000000000011       0x12 build-optee/imx8mn/release/bl31/gpc.o
 .comment       0x0000000000000011       0x12 build-optee/imx8mn/release/bl31/imx8_topology.o
 .comment       0x0000000000000011       0x12 build-optee/imx8mn/release/bl31/imx_sip_handler.o
 .comment       0x0000000000000011       0x12 build-optee/imx8mn/release/bl31/imx_sip_svc.o
 .comment       0x0000000000000011       0x12 build-optee/imx8mn/release/bl31/tzc380.o
 .comment       0x0000000000000011       0x12 build-optee/imx8mn/release/bl31/delay_timer.o
 .comment       0x0000000000000011       0x12 build-optee/imx8mn/release/bl31/generic_delay_timer.o
 .comment       0x0000000000000011       0x12 build-optee/imx8mn/release/bl31/xlat_tables_arch.o
 .comment       0x0000000000000011       0x12 build-optee/imx8mn/release/bl31/xlat_tables_context.o
 .comment       0x0000000000000011       0x12 build-optee/imx8mn/release/bl31/xlat_tables_core.o
 .comment       0x0000000000000011       0x12 build-optee/imx8mn/release/bl31/xlat_tables_utils.o
 .comment       0x0000000000000011       0x12 build-optee/imx8mn/release/bl31/dram.o
 .comment       0x0000000000000011       0x12 build-optee/imx8mn/release/bl31/clock.o
 .comment       0x0000000000000011       0x12 build-optee/imx8mn/release/bl31/dram_retention.o
 .comment       0x0000000000000011       0x12 build-optee/imx8mn/release/bl31/ddr4_dvfs.o
 .comment       0x0000000000000011       0x12 build-optee/imx8mn/release/bl31/lpddr4_dvfs.o
 .comment       0x0000000000000011       0x12 build-optee/imx8mn/release/bl31/gicv3_helpers.o
 .comment       0x0000000000000011       0x12 build-optee/imx8mn/release/bl31/arm_gicv3_common.o
 .comment       0x0000000000000011       0x12 build-optee/imx8mn/release/bl31/gic500.o
 .comment       0x0000000000000011       0x12 build-optee/imx8mn/release/bl31/gicv3_main.o
 .comment       0x0000000000000011       0x12 build-optee/imx8mn/release/bl31/gic_common.o
 .comment       0x0000000000000011       0x12 build-optee/imx8mn/release/bl31/plat_gicv3.o
 .comment       0x0000000000000011       0x12 build-optee/imx8mn/release/bl31/plat_psci_common.o
 .comment       0x0000000000000011       0x12 build-optee/imx8mn/release/bl31/plat_imx8_gic.o
 .comment       0x0000000000000011       0x12 build-optee/imx8mn/release/bl31/bl31_main.o
 .comment       0x0000000000000011       0x12 build-optee/imx8mn/release/bl31/interrupt_mgmt.o
 .comment       0x0000000000000011       0x12 build-optee/imx8mn/release/bl31/bl31_context_mgmt.o
 .comment       0x0000000000000011       0x12 build-optee/imx8mn/release/bl31/runtime_svc.o
 .comment       0x0000000000000011       0x12 build-optee/imx8mn/release/bl31/arm_arch_svc_setup.o
 .comment       0x0000000000000011       0x12 build-optee/imx8mn/release/bl31/std_svc_setup.o
 .comment       0x0000000000000011       0x12 build-optee/imx8mn/release/bl31/cpu_data_array.o
 .comment       0x0000000000000011       0x12 build-optee/imx8mn/release/bl31/context_mgmt.o
 .comment       0x0000000000000011       0x12 build-optee/imx8mn/release/bl31/psci_off.o
 .comment       0x0000000000000011       0x12 build-optee/imx8mn/release/bl31/psci_on.o
 .comment       0x0000000000000011       0x12 build-optee/imx8mn/release/bl31/psci_suspend.o
 .comment       0x0000000000000011       0x12 build-optee/imx8mn/release/bl31/psci_common.o
 .comment       0x0000000000000011       0x12 build-optee/imx8mn/release/bl31/psci_main.o
 .comment       0x0000000000000011       0x12 build-optee/imx8mn/release/bl31/psci_setup.o
 .comment       0x0000000000000011       0x12 build-optee/imx8mn/release/bl31/psci_system_off.o
 .comment       0x0000000000000011       0x12 build-optee/imx8mn/release/bl31/psci_mem_protect.o
 .comment       0x0000000000000011       0x12 build-optee/imx8mn/release/bl31/bakery_lock_coherent.o
 .comment       0x0000000000000011       0x12 build-optee/imx8mn/release/bl31/spe.o
 .comment       0x0000000000000011       0x12 build-optee/imx8mn/release/bl31/sve.o
 .comment       0x0000000000000011       0x12 build-optee/imx8mn/release/bl31/opteed_common.o
 .comment       0x0000000000000011       0x12 build-optee/imx8mn/release/bl31/opteed_main.o
 .comment       0x0000000000000011       0x12 build-optee/imx8mn/release/bl31/opteed_pm.o
 .comment       0x0000000000000011       0x12 build-optee/imx8mn/release/bl31/bl_common.o
 .comment       0x0000000000000011       0x12 build-optee/imx8mn/release/bl31/tf_log.o
 .comment       0x0000000000000011       0x12 build-optee/imx8mn/release/bl31/multi_console.o
 .comment       0x0000000000000011       0x12 build-optee/imx8mn/release/bl31/plat_log_common.o
 .comment       0x0000000000000011       0x12 build-optee/imx8mn/release/bl31/plat_common.o
 .comment       0x0000000000000011       0x12 build-optee/imx8mn/release/lib/libc.a(memcpy.o)
 .comment       0x0000000000000011       0x12 build-optee/imx8mn/release/lib/libc.a(memmove.o)
 .comment       0x0000000000000011       0x12 build-optee/imx8mn/release/lib/libc.a(memset.o)
 .comment       0x0000000000000011       0x12 build-optee/imx8mn/release/lib/libc.a(printf.o)
 .comment       0x0000000000000011       0x12 build-optee/imx8mn/release/lib/libc.a(putchar.o)
 .comment       0x0000000000000011       0x12 build-optee/imx8mn/release/lib/libc.a(strchr.o)

.note.GNU-stack
                0x0000000000000000        0x0
 .note.GNU-stack
                0x0000000000000000        0x0 build-optee/imx8mn/release/bl31/build_message.o
 .note.GNU-stack
                0x0000000000000000        0x0 build-optee/imx8mn/release/bl31/gpc_common.o
 .note.GNU-stack
                0x0000000000000000        0x0 build-optee/imx8mn/release/bl31/hab.o
 .note.GNU-stack
                0x0000000000000000        0x0 build-optee/imx8mn/release/bl31/imx_aipstz.o
 .note.GNU-stack
                0x0000000000000000        0x0 build-optee/imx8mn/release/bl31/imx_rdc.o
 .note.GNU-stack
                0x0000000000000000        0x0 build-optee/imx8mn/release/bl31/imx8m_caam.o
 .note.GNU-stack
                0x0000000000000000        0x0 build-optee/imx8mn/release/bl31/imx8m_csu.o
 .note.GNU-stack
                0x0000000000000000        0x0 build-optee/imx8mn/release/bl31/imx8m_psci_common.o
 .note.GNU-stack
                0x0000000000000000        0x0 build-optee/imx8mn/release/bl31/imx8mn_bl31_setup.o
 .note.GNU-stack
                0x0000000000000000        0x0 build-optee/imx8mn/release/bl31/imx8mn_psci.o
 .note.GNU-stack
                0x0000000000000000        0x0 build-optee/imx8mn/release/bl31/gpc.o
 .note.GNU-stack
                0x0000000000000000        0x0 build-optee/imx8mn/release/bl31/imx8_topology.o
 .note.GNU-stack
                0x0000000000000000        0x0 build-optee/imx8mn/release/bl31/imx_sip_handler.o
 .note.GNU-stack
                0x0000000000000000        0x0 build-optee/imx8mn/release/bl31/imx_sip_svc.o
 .note.GNU-stack
                0x0000000000000000        0x0 build-optee/imx8mn/release/bl31/tzc380.o
 .note.GNU-stack
                0x0000000000000000        0x0 build-optee/imx8mn/release/bl31/delay_timer.o
 .note.GNU-stack
                0x0000000000000000        0x0 build-optee/imx8mn/release/bl31/generic_delay_timer.o
 .note.GNU-stack
                0x0000000000000000        0x0 build-optee/imx8mn/release/bl31/xlat_tables_arch.o
 .note.GNU-stack
                0x0000000000000000        0x0 build-optee/imx8mn/release/bl31/xlat_tables_context.o
 .note.GNU-stack
                0x0000000000000000        0x0 build-optee/imx8mn/release/bl31/xlat_tables_core.o
 .note.GNU-stack
                0x0000000000000000        0x0 build-optee/imx8mn/release/bl31/xlat_tables_utils.o
 .note.GNU-stack
                0x0000000000000000        0x0 build-optee/imx8mn/release/bl31/dram.o
 .note.GNU-stack
                0x0000000000000000        0x0 build-optee/imx8mn/release/bl31/clock.o
 .note.GNU-stack
                0x0000000000000000        0x0 build-optee/imx8mn/release/bl31/dram_retention.o
 .note.GNU-stack
                0x0000000000000000        0x0 build-optee/imx8mn/release/bl31/ddr4_dvfs.o
 .note.GNU-stack
                0x0000000000000000        0x0 build-optee/imx8mn/release/bl31/lpddr4_dvfs.o
 .note.GNU-stack
                0x0000000000000000        0x0 build-optee/imx8mn/release/bl31/gicv3_helpers.o
 .note.GNU-stack
                0x0000000000000000        0x0 build-optee/imx8mn/release/bl31/arm_gicv3_common.o
 .note.GNU-stack
                0x0000000000000000        0x0 build-optee/imx8mn/release/bl31/gic500.o
 .note.GNU-stack
                0x0000000000000000        0x0 build-optee/imx8mn/release/bl31/gicv3_main.o
 .note.GNU-stack
                0x0000000000000000        0x0 build-optee/imx8mn/release/bl31/gic_common.o
 .note.GNU-stack
                0x0000000000000000        0x0 build-optee/imx8mn/release/bl31/plat_gicv3.o
 .note.GNU-stack
                0x0000000000000000        0x0 build-optee/imx8mn/release/bl31/plat_psci_common.o
 .note.GNU-stack
                0x0000000000000000        0x0 build-optee/imx8mn/release/bl31/plat_imx8_gic.o
 .note.GNU-stack
                0x0000000000000000        0x0 build-optee/imx8mn/release/bl31/bl31_main.o
 .note.GNU-stack
                0x0000000000000000        0x0 build-optee/imx8mn/release/bl31/interrupt_mgmt.o
 .note.GNU-stack
                0x0000000000000000        0x0 build-optee/imx8mn/release/bl31/bl31_context_mgmt.o
 .note.GNU-stack
                0x0000000000000000        0x0 build-optee/imx8mn/release/bl31/runtime_svc.o
 .note.GNU-stack
                0x0000000000000000        0x0 build-optee/imx8mn/release/bl31/arm_arch_svc_setup.o
 .note.GNU-stack
                0x0000000000000000        0x0 build-optee/imx8mn/release/bl31/std_svc_setup.o
 .note.GNU-stack
                0x0000000000000000        0x0 build-optee/imx8mn/release/bl31/cpu_data_array.o
 .note.GNU-stack
                0x0000000000000000        0x0 build-optee/imx8mn/release/bl31/context_mgmt.o
 .note.GNU-stack
                0x0000000000000000        0x0 build-optee/imx8mn/release/bl31/psci_off.o
 .note.GNU-stack
                0x0000000000000000        0x0 build-optee/imx8mn/release/bl31/psci_on.o
 .note.GNU-stack
                0x0000000000000000        0x0 build-optee/imx8mn/release/bl31/psci_suspend.o
 .note.GNU-stack
                0x0000000000000000        0x0 build-optee/imx8mn/release/bl31/psci_common.o
 .note.GNU-stack
                0x0000000000000000        0x0 build-optee/imx8mn/release/bl31/psci_main.o
 .note.GNU-stack
                0x0000000000000000        0x0 build-optee/imx8mn/release/bl31/psci_setup.o
 .note.GNU-stack
                0x0000000000000000        0x0 build-optee/imx8mn/release/bl31/psci_system_off.o
 .note.GNU-stack
                0x0000000000000000        0x0 build-optee/imx8mn/release/bl31/psci_mem_protect.o
 .note.GNU-stack
                0x0000000000000000        0x0 build-optee/imx8mn/release/bl31/bakery_lock_coherent.o
 .note.GNU-stack
                0x0000000000000000        0x0 build-optee/imx8mn/release/bl31/spe.o
 .note.GNU-stack
                0x0000000000000000        0x0 build-optee/imx8mn/release/bl31/sve.o
 .note.GNU-stack
                0x0000000000000000        0x0 build-optee/imx8mn/release/bl31/opteed_common.o
 .note.GNU-stack
                0x0000000000000000        0x0 build-optee/imx8mn/release/bl31/opteed_main.o
 .note.GNU-stack
                0x0000000000000000        0x0 build-optee/imx8mn/release/bl31/opteed_pm.o
 .note.GNU-stack
                0x0000000000000000        0x0 build-optee/imx8mn/release/bl31/bl_common.o
 .note.GNU-stack
                0x0000000000000000        0x0 build-optee/imx8mn/release/bl31/tf_log.o
 .note.GNU-stack
                0x0000000000000000        0x0 build-optee/imx8mn/release/bl31/multi_console.o
 .note.GNU-stack
                0x0000000000000000        0x0 build-optee/imx8mn/release/bl31/plat_log_common.o
 .note.GNU-stack
                0x0000000000000000        0x0 build-optee/imx8mn/release/bl31/plat_common.o
 .note.GNU-stack
                0x0000000000000000        0x0 build-optee/imx8mn/release/lib/libc.a(memcpy.o)
 .note.GNU-stack
                0x0000000000000000        0x0 build-optee/imx8mn/release/lib/libc.a(memmove.o)
 .note.GNU-stack
                0x0000000000000000        0x0 build-optee/imx8mn/release/lib/libc.a(memset.o)
 .note.GNU-stack
                0x0000000000000000        0x0 build-optee/imx8mn/release/lib/libc.a(printf.o)
 .note.GNU-stack
                0x0000000000000000        0x0 build-optee/imx8mn/release/lib/libc.a(putchar.o)
 .note.GNU-stack
                0x0000000000000000        0x0 build-optee/imx8mn/release/lib/libc.a(strchr.o)

.debug_loc      0x0000000000000000    0x2fc32
 .debug_loc     0x0000000000000000     0x39f4 build-optee/imx8mn/release/bl31/gpc_common.o
 .debug_loc     0x00000000000039f4      0x8f7 build-optee/imx8mn/release/bl31/hab.o
 .debug_loc     0x00000000000042eb      0x194 build-optee/imx8mn/release/bl31/imx_aipstz.o
 .debug_loc     0x000000000000447f      0x286 build-optee/imx8mn/release/bl31/imx_rdc.o
 .debug_loc     0x0000000000004705      0x397 build-optee/imx8mn/release/bl31/imx8m_caam.o
 .debug_loc     0x0000000000004a9c      0x514 build-optee/imx8mn/release/bl31/imx8m_csu.o
 .debug_loc     0x0000000000004fb0      0xaae build-optee/imx8mn/release/bl31/imx8m_psci_common.o
 .debug_loc     0x0000000000005a5e      0x50e build-optee/imx8mn/release/bl31/imx8mn_bl31_setup.o
 .debug_loc     0x0000000000005f6c       0x8f build-optee/imx8mn/release/bl31/imx8mn_psci.o
 .debug_loc     0x0000000000005ffb     0x1ae1 build-optee/imx8mn/release/bl31/gpc.o
 .debug_loc     0x0000000000007adc       0xdf build-optee/imx8mn/release/bl31/imx8_topology.o
 .debug_loc     0x0000000000007bbb      0x28b build-optee/imx8mn/release/bl31/imx_sip_handler.o
 .debug_loc     0x0000000000007e46      0x7ca build-optee/imx8mn/release/bl31/imx_sip_svc.o
 .debug_loc     0x0000000000008610      0x47b build-optee/imx8mn/release/bl31/tzc380.o
 .debug_loc     0x0000000000008a8b      0x142 build-optee/imx8mn/release/bl31/delay_timer.o
 .debug_loc     0x0000000000008bcd      0x1da build-optee/imx8mn/release/bl31/generic_delay_timer.o
 .debug_loc     0x0000000000008da7      0x833 build-optee/imx8mn/release/bl31/xlat_tables_arch.o
 .debug_loc     0x00000000000095da      0x612 build-optee/imx8mn/release/bl31/xlat_tables_context.o
 .debug_loc     0x0000000000009bec     0x1be9 build-optee/imx8mn/release/bl31/xlat_tables_core.o
 .debug_loc     0x000000000000b7d5      0xd83 build-optee/imx8mn/release/bl31/xlat_tables_utils.o
 .debug_loc     0x000000000000c558     0x12aa build-optee/imx8mn/release/bl31/dram.o
 .debug_loc     0x000000000000d802      0xf16 build-optee/imx8mn/release/bl31/clock.o
 .debug_loc     0x000000000000e718     0x13b2 build-optee/imx8mn/release/bl31/dram_retention.o
 .debug_loc     0x000000000000faca     0x119b build-optee/imx8mn/release/bl31/ddr4_dvfs.o
 .debug_loc     0x0000000000010c65     0x32f0 build-optee/imx8mn/release/bl31/lpddr4_dvfs.o
 .debug_loc     0x0000000000013f55     0x410f build-optee/imx8mn/release/bl31/gicv3_helpers.o
 .debug_loc     0x0000000000018064      0x15a build-optee/imx8mn/release/bl31/arm_gicv3_common.o
 .debug_loc     0x00000000000181be       0x7a build-optee/imx8mn/release/bl31/gic500.o
 .debug_loc     0x0000000000018238     0x47d1 build-optee/imx8mn/release/bl31/gicv3_main.o
 .debug_loc     0x000000000001ca09     0x379c build-optee/imx8mn/release/bl31/gic_common.o
 .debug_loc     0x00000000000201a5      0x9df build-optee/imx8mn/release/bl31/plat_gicv3.o
 .debug_loc     0x0000000000020b84      0x1a5 build-optee/imx8mn/release/bl31/plat_psci_common.o
 .debug_loc     0x0000000000020d29      0x348 build-optee/imx8mn/release/bl31/plat_imx8_gic.o
 .debug_loc     0x0000000000021071      0x216 build-optee/imx8mn/release/bl31/bl31_main.o
 .debug_loc     0x0000000000021287      0xb29 build-optee/imx8mn/release/bl31/interrupt_mgmt.o
 .debug_loc     0x0000000000021db0      0x1f7 build-optee/imx8mn/release/bl31/bl31_context_mgmt.o
 .debug_loc     0x0000000000021fa7      0x64a build-optee/imx8mn/release/bl31/runtime_svc.o
 .debug_loc     0x00000000000225f1      0x30b build-optee/imx8mn/release/bl31/arm_arch_svc_setup.o
 .debug_loc     0x00000000000228fc      0x52e build-optee/imx8mn/release/bl31/std_svc_setup.o
 .debug_loc     0x0000000000022e2a     0x11e9 build-optee/imx8mn/release/bl31/context_mgmt.o
 .debug_loc     0x0000000000024013      0x256 build-optee/imx8mn/release/bl31/psci_off.o
 .debug_loc     0x0000000000024269      0x5ab build-optee/imx8mn/release/bl31/psci_on.o
 .debug_loc     0x0000000000024814      0x6ad build-optee/imx8mn/release/bl31/psci_suspend.o
 .debug_loc     0x0000000000024ec1     0x2769 build-optee/imx8mn/release/bl31/psci_common.o
 .debug_loc     0x000000000002762a     0x3011 build-optee/imx8mn/release/bl31/psci_main.o
 .debug_loc     0x000000000002a63b      0x6a5 build-optee/imx8mn/release/bl31/psci_setup.o
 .debug_loc     0x000000000002ace0      0x122 build-optee/imx8mn/release/bl31/psci_system_off.o
 .debug_loc     0x000000000002ae02      0x175 build-optee/imx8mn/release/bl31/psci_mem_protect.o
 .debug_loc     0x000000000002af77      0x4a6 build-optee/imx8mn/release/bl31/bakery_lock_coherent.o
 .debug_loc     0x000000000002b41d      0x3e7 build-optee/imx8mn/release/bl31/spe.o
 .debug_loc     0x000000000002b804      0x559 build-optee/imx8mn/release/bl31/sve.o
 .debug_loc     0x000000000002bd5d      0x3a4 build-optee/imx8mn/release/bl31/opteed_common.o
 .debug_loc     0x000000000002c101      0xc1e build-optee/imx8mn/release/bl31/opteed_main.o
 .debug_loc     0x000000000002cd1f      0x4fd build-optee/imx8mn/release/bl31/opteed_pm.o
 .debug_loc     0x000000000002d21c      0x5af build-optee/imx8mn/release/bl31/bl_common.o
 .debug_loc     0x000000000002d7cb      0x10a build-optee/imx8mn/release/bl31/tf_log.o
 .debug_loc     0x000000000002d8d5      0x67b build-optee/imx8mn/release/bl31/multi_console.o
 .debug_loc     0x000000000002df50       0xd6 build-optee/imx8mn/release/bl31/plat_log_common.o
 .debug_loc     0x000000000002e026      0x18d build-optee/imx8mn/release/bl31/plat_common.o
 .debug_loc     0x000000000002e1b3      0x178 build-optee/imx8mn/release/lib/libc.a(memcpy.o)
 .debug_loc     0x000000000002e32b      0x263 build-optee/imx8mn/release/lib/libc.a(memmove.o)
 .debug_loc     0x000000000002e58e      0x138 build-optee/imx8mn/release/lib/libc.a(memset.o)
 .debug_loc     0x000000000002e6c6     0x1468 build-optee/imx8mn/release/lib/libc.a(printf.o)
 .debug_loc     0x000000000002fb2e       0x77 build-optee/imx8mn/release/lib/libc.a(putchar.o)
 .debug_loc     0x000000000002fba5       0x8d build-optee/imx8mn/release/lib/libc.a(strchr.o)

.debug_ranges   0x0000000000000000     0xe070
 .debug_ranges  0x0000000000000000     0x1a30 build-optee/imx8mn/release/bl31/gpc_common.o
 .debug_ranges  0x0000000000001a30       0x20 build-optee/imx8mn/release/bl31/hab.o
 .debug_ranges  0x0000000000001a50       0xa0 build-optee/imx8mn/release/bl31/imx_aipstz.o
 .debug_ranges  0x0000000000001af0      0x110 build-optee/imx8mn/release/bl31/imx_rdc.o
 .debug_ranges  0x0000000000001c00      0x290 build-optee/imx8mn/release/bl31/imx8m_caam.o
 .debug_ranges  0x0000000000001e90      0x280 build-optee/imx8mn/release/bl31/imx8m_csu.o
 .debug_ranges  0x0000000000002110      0x440 build-optee/imx8mn/release/bl31/imx8m_psci_common.o
 .debug_ranges  0x0000000000002550      0x230 build-optee/imx8mn/release/bl31/imx8mn_bl31_setup.o
 .debug_ranges  0x0000000000002780       0x20 build-optee/imx8mn/release/bl31/imx8mn_psci.o
 .debug_ranges  0x00000000000027a0     0x1020 build-optee/imx8mn/release/bl31/gpc.o
 .debug_ranges  0x00000000000037c0       0x30 build-optee/imx8mn/release/bl31/imx8_topology.o
 .debug_ranges  0x00000000000037f0       0x60 build-optee/imx8mn/release/bl31/imx_sip_handler.o
 .debug_ranges  0x0000000000003850       0x30 build-optee/imx8mn/release/bl31/imx_sip_svc.o
 .debug_ranges  0x0000000000003880      0x170 build-optee/imx8mn/release/bl31/tzc380.o
 .debug_ranges  0x00000000000039f0       0x40 build-optee/imx8mn/release/bl31/delay_timer.o
 .debug_ranges  0x0000000000003a30       0x70 build-optee/imx8mn/release/bl31/generic_delay_timer.o
 .debug_ranges  0x0000000000003aa0       0xb0 build-optee/imx8mn/release/bl31/xlat_tables_arch.o
 .debug_ranges  0x0000000000003b50       0xb0 build-optee/imx8mn/release/bl31/xlat_tables_context.o
 .debug_ranges  0x0000000000003c00      0x480 build-optee/imx8mn/release/bl31/xlat_tables_core.o
 .debug_ranges  0x0000000000004080      0x1c0 build-optee/imx8mn/release/bl31/xlat_tables_utils.o
 .debug_ranges  0x0000000000004240      0x340 build-optee/imx8mn/release/bl31/dram.o
 .debug_ranges  0x0000000000004580      0x830 build-optee/imx8mn/release/bl31/clock.o
 .debug_ranges  0x0000000000004db0      0xf50 build-optee/imx8mn/release/bl31/dram_retention.o
 .debug_ranges  0x0000000000005d00      0x880 build-optee/imx8mn/release/bl31/ddr4_dvfs.o
 .debug_ranges  0x0000000000006580     0x1fb0 build-optee/imx8mn/release/bl31/lpddr4_dvfs.o
 .debug_ranges  0x0000000000008530     0x1350 build-optee/imx8mn/release/bl31/gicv3_helpers.o
 .debug_ranges  0x0000000000009880      0x180 build-optee/imx8mn/release/bl31/arm_gicv3_common.o
 .debug_ranges  0x0000000000009a00       0x30 build-optee/imx8mn/release/bl31/gic500.o
 .debug_ranges  0x0000000000009a30     0x1ae0 build-optee/imx8mn/release/bl31/gicv3_main.o
 .debug_ranges  0x000000000000b510      0x8e0 build-optee/imx8mn/release/bl31/gic_common.o
 .debug_ranges  0x000000000000bdf0      0x1a0 build-optee/imx8mn/release/bl31/plat_gicv3.o
 .debug_ranges  0x000000000000bf90       0x20 build-optee/imx8mn/release/bl31/plat_psci_common.o
 .debug_ranges  0x000000000000bfb0      0x1c0 build-optee/imx8mn/release/bl31/plat_imx8_gic.o
 .debug_ranges  0x000000000000c170      0x100 build-optee/imx8mn/release/bl31/bl31_main.o
 .debug_ranges  0x000000000000c270      0x160 build-optee/imx8mn/release/bl31/interrupt_mgmt.o
 .debug_ranges  0x000000000000c3d0       0x50 build-optee/imx8mn/release/bl31/bl31_context_mgmt.o
 .debug_ranges  0x000000000000c420      0x190 build-optee/imx8mn/release/bl31/runtime_svc.o
 .debug_ranges  0x000000000000c5b0       0x60 build-optee/imx8mn/release/bl31/arm_arch_svc_setup.o
 .debug_ranges  0x000000000000c610       0xc0 build-optee/imx8mn/release/bl31/std_svc_setup.o
 .debug_ranges  0x000000000000c6d0      0x170 build-optee/imx8mn/release/bl31/context_mgmt.o
 .debug_ranges  0x000000000000c840       0x90 build-optee/imx8mn/release/bl31/psci_off.o
 .debug_ranges  0x000000000000c8d0      0x1a0 build-optee/imx8mn/release/bl31/psci_on.o
 .debug_ranges  0x000000000000ca70       0x90 build-optee/imx8mn/release/bl31/psci_suspend.o
 .debug_ranges  0x000000000000cb00      0x650 build-optee/imx8mn/release/bl31/psci_common.o
 .debug_ranges  0x000000000000d150      0x1f0 build-optee/imx8mn/release/bl31/psci_main.o
 .debug_ranges  0x000000000000d340      0x250 build-optee/imx8mn/release/bl31/psci_setup.o
 .debug_ranges  0x000000000000d590       0x40 build-optee/imx8mn/release/bl31/psci_system_off.o
 .debug_ranges  0x000000000000d5d0       0x30 build-optee/imx8mn/release/bl31/psci_mem_protect.o
 .debug_ranges  0x000000000000d600      0x1a0 build-optee/imx8mn/release/bl31/bakery_lock_coherent.o
 .debug_ranges  0x000000000000d7a0      0x140 build-optee/imx8mn/release/bl31/spe.o
 .debug_ranges  0x000000000000d8e0      0x190 build-optee/imx8mn/release/bl31/sve.o
 .debug_ranges  0x000000000000da70       0x70 build-optee/imx8mn/release/bl31/opteed_common.o
 .debug_ranges  0x000000000000dae0       0x50 build-optee/imx8mn/release/bl31/opteed_main.o
 .debug_ranges  0x000000000000db30       0x90 build-optee/imx8mn/release/bl31/opteed_pm.o
 .debug_ranges  0x000000000000dbc0       0xd0 build-optee/imx8mn/release/bl31/bl_common.o
 .debug_ranges  0x000000000000dc90       0x30 build-optee/imx8mn/release/bl31/tf_log.o
 .debug_ranges  0x000000000000dcc0      0x1e0 build-optee/imx8mn/release/bl31/multi_console.o
 .debug_ranges  0x000000000000dea0       0x20 build-optee/imx8mn/release/bl31/plat_log_common.o
 .debug_ranges  0x000000000000dec0       0x70 build-optee/imx8mn/release/bl31/plat_common.o
 .debug_ranges  0x000000000000df30       0x20 build-optee/imx8mn/release/lib/libc.a(memcpy.o)
 .debug_ranges  0x000000000000df50       0x20 build-optee/imx8mn/release/lib/libc.a(memmove.o)
 .debug_ranges  0x000000000000df70       0x20 build-optee/imx8mn/release/lib/libc.a(memset.o)
 .debug_ranges  0x000000000000df90       0xa0 build-optee/imx8mn/release/lib/libc.a(printf.o)
 .debug_ranges  0x000000000000e030       0x20 build-optee/imx8mn/release/lib/libc.a(putchar.o)
 .debug_ranges  0x000000000000e050       0x20 build-optee/imx8mn/release/lib/libc.a(strchr.o)

.debug_frame    0x0000000000000000      0xc88
 .debug_frame   0x0000000000000000      0x118 build-optee/imx8mn/release/bl31/imx8_helpers.o
 .debug_frame   0x0000000000000118       0x88 build-optee/imx8mn/release/bl31/imx_uart_console.o
 .debug_frame   0x00000000000001a0      0x1a8 build-optee/imx8mn/release/bl31/cortex_a53.o
 .debug_frame   0x0000000000000348       0x58 build-optee/imx8mn/release/bl31/enable_mmu.o
 .debug_frame   0x00000000000003a0       0x40 build-optee/imx8mn/release/bl31/bl31_entrypoint.o
 .debug_frame   0x00000000000003e0       0x40 build-optee/imx8mn/release/bl31/crash_reporting.o
 .debug_frame   0x0000000000000420       0xa0 build-optee/imx8mn/release/bl31/ea_delegate.o
 .debug_frame   0x00000000000004c0      0x1a8 build-optee/imx8mn/release/bl31/runtime_exceptions.o
 .debug_frame   0x0000000000000668       0x40 build-optee/imx8mn/release/bl31/platform_mp_stack.o
 .debug_frame   0x00000000000006a8       0x40 build-optee/imx8mn/release/bl31/cpu_data.o
 .debug_frame   0x00000000000006e8      0x100 build-optee/imx8mn/release/bl31/cpu_helpers.o
 .debug_frame   0x00000000000007e8       0x40 build-optee/imx8mn/release/bl31/spinlock.o
 .debug_frame   0x0000000000000828       0x58 build-optee/imx8mn/release/bl31/psci_helpers.o
 .debug_frame   0x0000000000000880       0x88 build-optee/imx8mn/release/bl31/context.o
 .debug_frame   0x0000000000000908       0x40 build-optee/imx8mn/release/bl31/opteed_helpers.o
 .debug_frame   0x0000000000000948       0x70 build-optee/imx8mn/release/bl31/debug.o
 .debug_frame   0x00000000000009b8       0xe8 build-optee/imx8mn/release/bl31/cache_helpers.o
 .debug_frame   0x0000000000000aa0       0xe8 build-optee/imx8mn/release/bl31/misc_helpers.o
 .debug_frame   0x0000000000000b88      0x100 build-optee/imx8mn/release/bl31/platform_helpers.o
