
build-optee/imx8mn/release/bl31/bl31.elf:     file format elf64-littleaarch64
build-optee/imx8mn/release/bl31/bl31.elf
architecture: aarch64, flags 0x00000112:
EXEC_P, HAS_SYMS, D_PAGED
start address 0x0000000000960000

Program Header:
    LOAD off    0x0000000000010000 vaddr 0x0000000000960000 paddr 0x0000000000960000 align 2**16
         filesz 0x000000000000b1b0 memsz 0x000000000001c000 flags rwx
   STACK off    0x0000000000000000 vaddr 0x0000000000000000 paddr 0x0000000000000000 align 2**4
         filesz 0x0000000000000000 memsz 0x0000000000000000 flags rw-
private flags = 0:

Sections:
Idx Name          Size      VMA               LMA               File off  Algn
  0 ro            0000b000  0000000000960000  0000000000960000  00010000  2**11
                  CONTENTS, ALLOC, LOAD, CODE
  1 .data         000001b0  000000000096b000  000000000096b000  0001b000  2**3
                  CONTENTS, ALLOC, LOAD, DATA
  2 stacks        00002c00  000000000096b1c0  000000000096b1c0  0001b1b0  2**6
                  ALLOC
  3 .bss          000042b8  000000000096ddc0  000000000096ddc0  0001b1b0  2**6
                  ALLOC
  4 xlat_table    00008000  0000000000973000  0000000000973000  0001b1b0  2**12
                  ALLOC
  5 coherent_ram  00001000  000000000097b000  000000000097b000  0001b1b0  2**12
                  ALLOC
  6 .debug_info   0002ff5f  0000000000000000  0000000000000000  0001b1b0  2**0
                  CONTENTS, READONLY, DEBUGGING
  7 .debug_abbrev 00009beb  0000000000000000  0000000000000000  0004b10f  2**0
                  CONTENTS, READONLY, DEBUGGING
  8 .debug_aranges 00001ee0  0000000000000000  0000000000000000  00054cfa  2**0
                  CONTENTS, READONLY, DEBUGGING
  9 .debug_line   00014788  0000000000000000  0000000000000000  00056bda  2**0
                  CONTENTS, READONLY, DEBUGGING
 10 .debug_str    000064f7  0000000000000000  0000000000000000  0006b362  2**0
                  CONTENTS, READONLY, DEBUGGING
 11 .comment      00000011  0000000000000000  0000000000000000  00071859  2**0
                  CONTENTS, READONLY
 12 .debug_loc    0002fc32  0000000000000000  0000000000000000  0007186a  2**0
                  CONTENTS, READONLY, DEBUGGING
 13 .debug_ranges 0000e070  0000000000000000  0000000000000000  000a149c  2**0
                  CONTENTS, READONLY, DEBUGGING
 14 .debug_frame  00000c88  0000000000000000  0000000000000000  000af510  2**3
                  CONTENTS, READONLY, DEBUGGING
SYMBOL TABLE:
0000000000960000 l    d  ro	0000000000000000 ro
000000000096b000 l    d  .data	0000000000000000 .data
000000000096b1c0 l    d  stacks	0000000000000000 stacks
000000000096ddc0 l    d  .bss	0000000000000000 .bss
0000000000973000 l    d  xlat_table	0000000000000000 xlat_table
000000000097b000 l    d  coherent_ram	0000000000000000 coherent_ram
0000000000000000 l    d  .debug_info	0000000000000000 .debug_info
0000000000000000 l    d  .debug_abbrev	0000000000000000 .debug_abbrev
0000000000000000 l    d  .debug_aranges	0000000000000000 .debug_aranges
0000000000000000 l    d  .debug_line	0000000000000000 .debug_line
0000000000000000 l    d  .debug_str	0000000000000000 .debug_str
0000000000000000 l    d  .comment	0000000000000000 .comment
0000000000000000 l    d  .debug_loc	0000000000000000 .debug_loc
0000000000000000 l    d  .debug_ranges	0000000000000000 .debug_ranges
0000000000000000 l    d  .debug_frame	0000000000000000 .debug_frame
0000000000000000 l    df *ABS*	0000000000000000 build-optee/imx8mn/release/bl31/bl31_entrypoint.o
000000000096002c l       ro	0000000000000000 do_cold_boot
00000000009600a4 l       ro	0000000000000000 do_primary_cold_boot
0000000000960144 l       ro	0000000000000000 stm
0000000000000000 l    df *ABS*	0000000000000000 gpc_common.c
00000000009694f8 l     O ro	0000000000000010 gpc_imr_offset
0000000000000000 l    df *ABS*	0000000000000000 hab.c
0000000000000000 l    df *ABS*	0000000000000000 imx_aipstz.c
0000000000000000 l    df *ABS*	0000000000000000 imx_rdc.c
0000000000000000 l    df *ABS*	0000000000000000 imx8m_caam.c
0000000000000000 l    df *ABS*	0000000000000000 imx8m_csu.c
0000000000000000 l    df *ABS*	0000000000000000 imx8m_psci_common.c
0000000000000000 l    df *ABS*	0000000000000000 imx8mn_bl31_setup.c
000000000096ddc0 l     O .bss	0000000000000058 bl32_image_ep_info
000000000096de18 l     O .bss	0000000000000058 bl33_image_ep_info
000000000096de70 l     O .bss	0000000000000030 console.3458
0000000000969508 l     O ro	00000000000000c8 aipstz
00000000009695d0 l     O ro	0000000000000018 csu_cfg
00000000009695e8 l     O ro	0000000000000168 imx_mmap
0000000000969750 l     O ro	000000000000008c rdc
0000000000000000 l    df *ABS*	0000000000000000 imx8mn_psci.c
00000000009697e0 l     O ro	00000000000000a8 imx_plat_psci_ops
0000000000000000 l    df *ABS*	0000000000000000 gpc.c
000000000096dea0 l     O .bss	0000000000000004 pu_domain_status
000000000096b050 l     O .data	00000000000000dc pu_domains
0000000000000000 l    df *ABS*	0000000000000000 imx8_topology.c
0000000000000000 l    df *ABS*	0000000000000000 imx_sip_handler.c
0000000000000000 l    df *ABS*	0000000000000000 imx_sip_svc.c
0000000000961a00 l     F ro	0000000000000008 imx_sip_setup
0000000000961a08 l     F ro	0000000000000108 imx_sip_handler
0000000000969c50 l     O ro	0000000000000020 __svc_desc_imx_sip_svc
0000000000000000 l    df *ABS*	0000000000000000 tzc380.c
0000000000000000 l    df *ABS*	0000000000000000 delay_timer.c
000000000096dea8 l     O .bss	0000000000000008 timer_ops
0000000000000000 l    df *ABS*	0000000000000000 generic_delay_timer.c
0000000000961bf0 l     F ro	000000000000000c get_timer_value
000000000096deb0 l     O .bss	0000000000000010 ops
0000000000000000 l    df *ABS*	0000000000000000 xlat_tables_arch.c
0000000000000000 l    df *ABS*	0000000000000000 xlat_tables_context.c
000000000096dec0 l     O .bss	0000000000000020 tf_base_xlat_table
000000000096dee0 l     O .bss	00000000000002a8 tf_mmap
000000000096b130 l     O .data	0000000000000060 tf_xlat_ctx
0000000000973000 l     O xlat_table	0000000000008000 tf_xlat_tables
0000000000000000 l    df *ABS*	0000000000000000 xlat_tables_core.c
0000000000961f40 l     F ro	00000000000002a8 xlat_tables_map_region
0000000000000000 l    df *ABS*	0000000000000000 xlat_tables_utils.c
0000000000000000 l    df *ABS*	0000000000000000 dram.c
00000000009625f8 l     F ro	0000000000000098 waiting_dvfs
000000000096e188 l     O .bss	0000000000000004 wfe_done
000000000096b190 l     O .data	0000000000000004 dev_fsp
000000000096b194 l     O .data	0000000000000001 wait_ddrc_hwffc_done
0000000000969920 l     O ro	0000000000000030 fsp_init_reg
0000000000000000 l    df *ABS*	0000000000000000 clock.c
0000000000000000 l    df *ABS*	0000000000000000 dram_retention.c
0000000000000000 l    df *ABS*	0000000000000000 ddr4_dvfs.c
0000000000000000 l    df *ABS*	0000000000000000 lpddr4_dvfs.c
0000000000000000 l    df *ABS*	0000000000000000 gicv3_helpers.c
0000000000000000 l    df *ABS*	0000000000000000 arm_gicv3_common.c
0000000000000000 l    df *ABS*	0000000000000000 gic500.c
0000000000000000 l    df *ABS*	0000000000000000 gicv3_main.c
0000000000000000 l    df *ABS*	0000000000000000 gic_common.c
0000000000000000 l    df *ABS*	0000000000000000 plat_gicv3.c
0000000000969980 l     O ro	0000000000000010 CSWTCH.10
0000000000000000 l    df *ABS*	0000000000000000 plat_psci_common.c
0000000000000000 l    df *ABS*	0000000000000000 plat_imx8_gic.c
0000000000964da0 l     F ro	0000000000000004 plat_imx_mpidr_to_core_pos
00000000009699c0 l     O ro	0000000000000004 g01s_interrupt_props
0000000000000000 l    df *ABS*	0000000000000000 bl31_main.c
000000000096e190 l     O .bss	0000000000000008 bl32_init
000000000096b198 l     O .data	0000000000000004 next_image_type
0000000000969a28 l     O ro	0000000000000010 psci_args.2914
0000000000000000 l    df *ABS*	0000000000000000 interrupt_mgmt.c
0000000000964ff8 l     F ro	000000000000008c set_scr_el3_from_rm
000000000096e198 l     O .bss	0000000000000048 intr_type_descs
0000000000000000 l    df *ABS*	0000000000000000 bl31_context_mgmt.c
0000000000000000 l    df *ABS*	0000000000000000 runtime_svc.c
0000000000000000 l    df *ABS*	0000000000000000 arm_arch_svc_setup.c
00000000009653d8 l     F ro	00000000000000bc arm_arch_svc_smc_handler
0000000000969c70 l     O ro	0000000000000020 __svc_desc_arm_arch_svc
0000000000000000 l    df *ABS*	0000000000000000 std_svc_setup.c
0000000000965498 l     F ro	0000000000000024 std_svc_setup
00000000009654c0 l     F ro	00000000000000c8 std_svc_smc_handler
0000000000969c90 l     O ro	0000000000000020 __svc_desc_std_svc
0000000000000000 l    df *ABS*	0000000000000000 context_mgmt.c
0000000000000000 l    df *ABS*	0000000000000000 psci_off.c
0000000000000000 l    df *ABS*	0000000000000000 psci_on.c
0000000000000000 l    df *ABS*	0000000000000000 psci_suspend.c
0000000000000000 l    df *ABS*	0000000000000000 psci_common.c
000000000096e1e0 l     O .bss	0000000000000008 psci_req_local_pwr_states
0000000000000000 l    df *ABS*	0000000000000000 psci_main.c
0000000000000000 l    df *ABS*	0000000000000000 psci_setup.c
000000000096e1f0 l     O .bss	0000000000000940 psci_ns_context
0000000000000000 l    df *ABS*	0000000000000000 psci_system_off.c
0000000000000000 l    df *ABS*	0000000000000000 psci_mem_protect.c
0000000000000000 l    df *ABS*	0000000000000000 bakery_lock_coherent.c
0000000000000000 l    df *ABS*	0000000000000000 spe.c
0000000000967640 l     F ro	0000000000000028 spe_drain_buffers_hook
0000000000000000 l    df *ABS*	0000000000000000 sve.c
00000000009676a8 l     F ro	0000000000000034 disable_sve_hook
00000000009676e0 l     F ro	0000000000000034 enable_sve_hook
0000000000000000 l    df *ABS*	0000000000000000 opteed_common.c
0000000000000000 l    df *ABS*	0000000000000000 opteed_main.c
0000000000967860 l     F ro	000000000000007c opteed_sel1_interrupt_handler
00000000009678e0 l     F ro	0000000000000248 opteed_smc_handler
0000000000967b28 l     F ro	0000000000000098 opteed_setup
0000000000967bc0 l     F ro	0000000000000040 opteed_init
0000000000969cb0 l     O ro	0000000000000020 __svc_desc_opteed_std
0000000000969cd0 l     O ro	0000000000000020 __svc_desc_opteed_fast
0000000000000000 l    df *ABS*	0000000000000000 opteed_pm.c
0000000000967c00 l     F ro	0000000000000004 opteed_cpu_on_handler
0000000000967c08 l     F ro	0000000000000008 opteed_cpu_migrate_info
0000000000967c10 l     F ro	0000000000000044 opteed_system_reset
0000000000967c58 l     F ro	0000000000000044 opteed_system_off
0000000000967ca0 l     F ro	000000000000008c opteed_cpu_suspend_finish_handler
0000000000967d30 l     F ro	000000000000008c opteed_cpu_suspend_handler
0000000000967dc0 l     F ro	0000000000000078 opteed_cpu_off_handler
0000000000967e38 l     F ro	00000000000000a8 opteed_cpu_on_finish_handler
0000000000000000 l    df *ABS*	0000000000000000 bl_common.c
0000000000000000 l    df *ABS*	0000000000000000 tf_log.c
000000000096b19c l     O .data	0000000000000004 max_log_level
0000000000000000 l    df *ABS*	0000000000000000 multi_console.c
0000000000000000 l    df *ABS*	0000000000000000 plat_log_common.c
0000000000969bb0 l     O ro	0000000000000028 plat_prefix_str
0000000000000000 l    df *ABS*	0000000000000000 plat_common.c
0000000000000000 l    df *ABS*	0000000000000000 build-optee/imx8mn/release/bl31/imx8_helpers.o
000000000096b1a8 l       .data	0000000000000000 mailbox_base
0000000000968204 l       ro	0000000000000000 A72
0000000000000000 l    df *ABS*	0000000000000000 build-optee/imx8mn/release/bl31/imx_uart_console.o
000000000096829c l       ro	0000000000000000 register_fail
00000000009682d8 l       ro	0000000000000000 putc_error
00000000009682fc l       ro	0000000000000000 getc_error
0000000000000000 l    df *ABS*	0000000000000000 build-optee/imx8mn/release/bl31/cortex_a53.o
0000000000000008 l       *ABS*	0000000000000000 CPU_MIDR_SIZE
0000000000000008 l       *ABS*	0000000000000000 CPU_EXTRA1_FUNC_SIZE
0000000000000008 l       *ABS*	0000000000000000 CPU_EXTRA2_FUNC_SIZE
0000000000000008 l       *ABS*	0000000000000000 CPU_E_HANDLER_FUNC_SIZE
0000000000000008 l       *ABS*	0000000000000000 CPU_RESET_FUNC_SIZE
0000000000000010 l       *ABS*	0000000000000000 CPU_PWR_DWN_OPS_SIZE
0000000000000000 l       *ABS*	0000000000000000 CPU_ERRATA_FUNC_SIZE
0000000000000000 l       *ABS*	0000000000000000 CPU_ERRATA_LOCK_SIZE
0000000000000000 l       *ABS*	0000000000000000 CPU_ERRATA_PRINTED_SIZE
0000000000000000 l       *ABS*	0000000000000000 CPU_REG_DUMP_SIZE
0000000000000000 l       *ABS*	0000000000000000 CPU_MIDR
0000000000000008 l       *ABS*	0000000000000000 CPU_RESET_FUNC
0000000000000010 l       *ABS*	0000000000000000 CPU_EXTRA1_FUNC
0000000000000018 l       *ABS*	0000000000000000 CPU_EXTRA2_FUNC
0000000000000020 l       *ABS*	0000000000000000 CPU_E_HANDLER_FUNC
0000000000000028 l       *ABS*	0000000000000000 CPU_PWR_DWN_OPS
0000000000000038 l       *ABS*	0000000000000000 CPU_ERRATA_FUNC
0000000000000038 l       *ABS*	0000000000000000 CPU_ERRATA_LOCK
0000000000000038 l       *ABS*	0000000000000000 CPU_ERRATA_PRINTED
0000000000000038 l       *ABS*	0000000000000000 CPU_REG_DUMP
0000000000000038 l       *ABS*	0000000000000000 CPU_OPS_SIZE
000000000096830c l     F ro	0000000000000014 cortex_a53_disable_dcache
0000000000968320 l     F ro	0000000000000018 cortex_a53_disable_smp
0000000000968338 l     F ro	000000000000001c errata_a53_855873_wa
0000000000968354 l     F ro	0000000000000008 check_errata_855873
000000000096835c l     F ro	0000000000000028 cortex_a53_reset_func
0000000000968384 l     F ro	0000000000000018 cortex_a53_core_pwr_dwn
000000000096839c l     F ro	0000000000000024 cortex_a53_cluster_pwr_dwn
0000000000000000 l    df *ABS*	0000000000000000 build-optee/imx8mn/release/bl31/enable_mmu.o
0000000000000000 l    df *ABS*	0000000000000000 build-optee/imx8mn/release/bl31/crash_reporting.o
0000000000000000 l    df *ABS*	0000000000000000 build-optee/imx8mn/release/bl31/ea_delegate.o
0000000000000008 l       *ABS*	0000000000000000 CPU_MIDR_SIZE
0000000000000008 l       *ABS*	0000000000000000 CPU_EXTRA1_FUNC_SIZE
0000000000000008 l       *ABS*	0000000000000000 CPU_EXTRA2_FUNC_SIZE
0000000000000008 l       *ABS*	0000000000000000 CPU_E_HANDLER_FUNC_SIZE
0000000000000008 l       *ABS*	0000000000000000 CPU_RESET_FUNC_SIZE
0000000000000010 l       *ABS*	0000000000000000 CPU_PWR_DWN_OPS_SIZE
0000000000000000 l       *ABS*	0000000000000000 CPU_ERRATA_FUNC_SIZE
0000000000000000 l       *ABS*	0000000000000000 CPU_ERRATA_LOCK_SIZE
0000000000000000 l       *ABS*	0000000000000000 CPU_ERRATA_PRINTED_SIZE
0000000000000000 l       *ABS*	0000000000000000 CPU_REG_DUMP_SIZE
0000000000000000 l       *ABS*	0000000000000000 CPU_MIDR
0000000000000008 l       *ABS*	0000000000000000 CPU_RESET_FUNC
0000000000000010 l       *ABS*	0000000000000000 CPU_EXTRA1_FUNC
0000000000000018 l       *ABS*	0000000000000000 CPU_EXTRA2_FUNC
0000000000000020 l       *ABS*	0000000000000000 CPU_E_HANDLER_FUNC
0000000000000028 l       *ABS*	0000000000000000 CPU_PWR_DWN_OPS
0000000000000038 l       *ABS*	0000000000000000 CPU_ERRATA_FUNC
0000000000000038 l       *ABS*	0000000000000000 CPU_ERRATA_LOCK
0000000000000038 l       *ABS*	0000000000000000 CPU_ERRATA_PRINTED
0000000000000038 l       *ABS*	0000000000000000 CPU_REG_DUMP
0000000000000038 l       *ABS*	0000000000000000 CPU_OPS_SIZE
00000000009684b0 l     F ro	0000000000000068 ea_proceed
00000000009684a8 l     F ro	0000000000000004 delegate_sync_ea
00000000009684ac l     F ro	0000000000000004 delegate_async_ea
0000000000000000 l    df *ABS*	0000000000000000 build-optee/imx8mn/release/bl31/runtime_exceptions.o
0000000000968518 l       ro	0000000000000000 smc_handler32
000000000096851c l       ro	0000000000000000 smc_handler64
000000000096a4d8 l       ro	0000000000000000 interrupt_exit_irq_aarch64
000000000096a558 l       ro	0000000000000000 interrupt_exit_fiq_aarch64
000000000096a6d8 l       ro	0000000000000000 interrupt_exit_irq_aarch32
000000000096a758 l       ro	0000000000000000 interrupt_exit_fiq_aarch32
0000000000968518 l     F ro	0000000000000078 smc_handler
0000000000968584 l       ro	0000000000000000 smc_prohibited
0000000000968578 l       ro	0000000000000000 smc_unknown
0000000000000000 l    df *ABS*	0000000000000000 build-optee/imx8mn/release/bl31/platform_mp_stack.o
000000000096b1c0 l       stacks	0000000000000000 platform_normal_stacks
0000000000000006 l       *ABS*	0000000000000000 TZ_COUNT
0000000000000000 l    df *ABS*	0000000000000000 build-optee/imx8mn/release/bl31/cpu_data.o
0000000000000000 l    df *ABS*	0000000000000000 build-optee/imx8mn/release/bl31/cpu_helpers.o
0000000000000008 l       *ABS*	0000000000000000 CPU_MIDR_SIZE
0000000000000008 l       *ABS*	0000000000000000 CPU_EXTRA1_FUNC_SIZE
0000000000000008 l       *ABS*	0000000000000000 CPU_EXTRA2_FUNC_SIZE
0000000000000008 l       *ABS*	0000000000000000 CPU_E_HANDLER_FUNC_SIZE
0000000000000008 l       *ABS*	0000000000000000 CPU_RESET_FUNC_SIZE
0000000000000010 l       *ABS*	0000000000000000 CPU_PWR_DWN_OPS_SIZE
0000000000000000 l       *ABS*	0000000000000000 CPU_ERRATA_FUNC_SIZE
0000000000000000 l       *ABS*	0000000000000000 CPU_ERRATA_LOCK_SIZE
0000000000000000 l       *ABS*	0000000000000000 CPU_ERRATA_PRINTED_SIZE
0000000000000000 l       *ABS*	0000000000000000 CPU_REG_DUMP_SIZE
0000000000000000 l       *ABS*	0000000000000000 CPU_MIDR
0000000000000008 l       *ABS*	0000000000000000 CPU_RESET_FUNC
0000000000000010 l       *ABS*	0000000000000000 CPU_EXTRA1_FUNC
0000000000000018 l       *ABS*	0000000000000000 CPU_EXTRA2_FUNC
0000000000000020 l       *ABS*	0000000000000000 CPU_E_HANDLER_FUNC
0000000000000028 l       *ABS*	0000000000000000 CPU_PWR_DWN_OPS
0000000000000038 l       *ABS*	0000000000000000 CPU_ERRATA_FUNC
0000000000000038 l       *ABS*	0000000000000000 CPU_ERRATA_LOCK
0000000000000038 l       *ABS*	0000000000000000 CPU_ERRATA_PRINTED
0000000000000038 l       *ABS*	0000000000000000 CPU_REG_DUMP
0000000000000038 l       *ABS*	0000000000000000 CPU_OPS_SIZE
0000000000968680 l       ro	0000000000000000 error_exit
0000000000000000 l    df *ABS*	0000000000000000 build-optee/imx8mn/release/bl31/spinlock.o
00000000009686d0 l       ro	0000000000000000 l1
00000000009686d4 l       ro	0000000000000000 l2
0000000000000000 l    df *ABS*	0000000000000000 build-optee/imx8mn/release/bl31/psci_helpers.o
0000000000000000 l    df *ABS*	0000000000000000 build-optee/imx8mn/release/bl31/context.o
0000000000000000 l    df *ABS*	0000000000000000 build-optee/imx8mn/release/bl31/opteed_helpers.o
0000000000000000 l    df *ABS*	0000000000000000 build-optee/imx8mn/release/bl31/debug.o
0000000000969c37 l       ro	0000000000000000 panic_msg
0000000000968aa0 l       ro	0000000000000000 panic_common
0000000000968ac4 l       ro	0000000000000000 _panic_handler
0000000000000000 l    df *ABS*	0000000000000000 build-optee/imx8mn/release/bl31/cache_helpers.o
0000000000968b00 l       ro	0000000000000000 exit_loop_civac
0000000000968aec l       ro	0000000000000000 loop_civac
0000000000968b38 l       ro	0000000000000000 exit_loop_cvac
0000000000968b24 l       ro	0000000000000000 loop_cvac
0000000000968b70 l       ro	0000000000000000 exit_loop_ivac
0000000000968b5c l       ro	0000000000000000 loop_ivac
0000000000968b74 l     F ro	000000000000007c do_dcsw_op
0000000000968bec l       ro	0000000000000000 exit
0000000000968bf0 l       ro	0000000000000000 dcsw_loop_table
0000000000968b88 l       ro	0000000000000000 loop1
0000000000968bd4 l       ro	0000000000000000 level_done
0000000000968bf0 l       ro	0000000000000000 loop2_isw
0000000000968bf4 l       ro	0000000000000000 loop3_isw
0000000000968c10 l       ro	0000000000000000 loop2_cisw
0000000000968c14 l       ro	0000000000000000 loop3_cisw
0000000000968c30 l       ro	0000000000000000 loop2_csw
0000000000968c34 l       ro	0000000000000000 loop3_csw
0000000000000000 l    df *ABS*	0000000000000000 build-optee/imx8mn/release/bl31/misc_helpers.o
0000000000968c8c l     F ro	00000000000000e8 zeromem_dczva
0000000000000000 l    df *ABS*	0000000000000000 build-optee/imx8mn/release/bl31/platform_helpers.o
0000000000000000 l    df *ABS*	0000000000000000 memcpy.c
0000000000000000 l    df *ABS*	0000000000000000 memmove.c
0000000000000000 l    df *ABS*	0000000000000000 memset.c
0000000000000000 l    df *ABS*	0000000000000000 printf.c
0000000000968e20 l     F ro	00000000000000dc unsigned_num_print
0000000000000000 l    df *ABS*	0000000000000000 putchar.c
0000000000000000 l    df *ABS*	0000000000000000 strchr.c
0000000000000000 l    df *ABS*	0000000000000000 
0000000000000000 l    df *ABS*	0000000000000000 cpu_data_array.c
0000000000964b80 g     F ro	0000000000000014 gicd_read_nsacr
0000000000969448  w    F ro	000000000000002c putchar
0000000000965898 g     F ro	00000000000000f4 cm_prepare_el3_exit
0000000000967fd8 g     F ro	0000000000000018 console_set_scope
0000000000961680 g     F ro	00000000000000a8 imx_noc_wrapper_pre_suspend
0000000000964cc8  w    F ro	0000000000000030 plat_ic_get_pending_interrupt_type
0000000000963cf8 g     F ro	0000000000000014 gicd_write_igrpmodr
00000000009657d8 g     F ro	00000000000000c0 cm_el1_sysregs_context_restore
00000000009682a8 g     F ro	0000000000000038 console_imx_uart_putc
0000000000969d38 g     O ro	0000000000000008 __cb_func_disable_sve_hookcm_exited_normal_world
000000000097c000 g       coherent_ram	0000000000000000 __BL31_END__
00000000009713b0 g     O .bss	0000000000000010 tzc380
0000000000967f88 g     F ro	000000000000003c console_register
0000000000966960 g     F ro	000000000000011c psci_cpu_suspend
000000000097c000 g       coherent_ram	0000000000000000 __COHERENT_RAM_END__
00000000009685e4 g     F ro	0000000000000020 reset_handler
000000000096a600 g     F ro	0000000000000000 sync_exception_aarch32
0000000000968c84 g     F ro	0000000000000008 zeromem
00000000009694c8 g     O ro	000000000000002a version_string
0000000000969d28 g       ro	0000000000000000 __pubsub_psci_suspend_pwrdown_finish_end
0000000000966600 g     F ro	0000000000000110 psci_validate_entry_point
0000000000962468 g     F ro	0000000000000044 mmap_add_ctx
0000000000967ee0 g     F ro	0000000000000004 print_entry_point_info
0000000000965210 g     F ro	000000000000000c cm_get_context
00000000009693f8 g     F ro	0000000000000050 printf
00000000009713c0 g     O .bss	0000000000000018 mmu_cfg_params
00000000009625f0 g     F ro	0000000000000004 xlat_tables_print
0000000000966578 g     F ro	0000000000000064 psci_release_pwr_domain_locks
0000000000966050 g     F ro	0000000000000028 psci_validate_power_state
0000000000961960 g     F ro	000000000000003c plat_core_pos_by_mpidr
000000000096b000 g       ro	0000000000000000 __RW_START__
0000000000965f88 g     F ro	00000000000000c4 psci_cpu_suspend_finish
0000000000969990 g     O ro	0000000000000030 arm_gic_data
0000000000961438 g     F ro	0000000000000028 bl31_plat_get_next_image_ep_info
0000000000968c64 g     F ro	0000000000000010 dcsw_op_level1
0000000000968aa0 g     F ro	000000000000002c do_panic
0000000000960838 g     F ro	000000000000001c imx_set_rbc_count
0000000000968db0 g     F ro	0000000000000050 memmove
00000000009714b0 g     O .bss	0000000000000080 rt_svc_descs_indices
0000000000964bb0 g     F ro	0000000000000014 gicd_write_isenabler
0000000000961470 g     F ro	0000000000000030 plat_setup_psci_ops
000000000096a200 g     F ro	0000000000000000 sync_exception_sp_elx
0000000000964bc8 g     F ro	0000000000000014 gicd_write_ispendr
0000000000961d40 g     F ro	0000000000000080 setup_mmu_cfg
000000000096a000 g     F ro	0000000000000000 sync_exception_sp_el0
000000000096824c g     F ro	0000000000000054 console_imx_uart_register
0000000000968760 g     F ro	000000000000000c psci_power_down_wfi
0000000000964eb0 g     F ro	0000000000000044 plat_gic_restore
00000000009643d8 g     F ro	000000000000003c gicv3_cpuif_disable
000000000096872c g     F ro	0000000000000034 psci_do_pwrup_cache_maintenance
0000000000966b08 g     F ro	0000000000000058 psci_affinity_info
0000000000964fe8 g     F ro	000000000000000c bl31_register_bl32_init
0000000000968130  w    F ro	000000000000003c plat_log_get_prefix
0000000000966b60 g     F ro	0000000000000084 psci_migrate
0000000000962c20 g     F ro	00000000000000d0 dram_pll_init
0000000000963da0 g     F ro	000000000000006c gicv3_rdistif_base_addrs_probe
00000000009694a8 g     O ro	000000000000001e build_message
0000000000960fb0  w    F ro	00000000000000dc imx_domain_suspend
00000000009689e0 g     F ro	000000000000002c el3_exit
0000000000966fe0 g     F ro	0000000000000368 psci_setup
0000000000965220 g     F ro	000000000000000c cm_set_context
0000000000961e10 g     F ro	0000000000000038 init_xlat_tables
0000000000968170  w    F ro	0000000000000008 bl31_plat_runtime_setup
000000000096b000 g       .data	0000000000000000 __DATA_START__
000000000097b008 g     O coherent_ram	0000000000000020 psci_locks
0000000000968d74  w    F ro	0000000000000004 plat_disable_acp
00000000009664c8 g     F ro	0000000000000034 psci_find_target_suspend_lvl
0000000000961d18 g     F ro	0000000000000014 xlat_arch_regime_get_xn_desc
0000000000964c60 g     F ro	000000000000001c gicd_set_isenabler
0000000000967348 g     F ro	000000000000001c psci_arch_setup
00000000009686a8 g     F ro	0000000000000020 check_wa_cve_2017_5715
0000000000960ef0 g     F ro	0000000000000014 imx_pwr_domain_on_finish
0000000000968904 g     F ro	0000000000000074 save_gp_pmcr_pauth_regs
00000000009673a0 g     F ro	0000000000000038 psci_system_reset
0000000000964c80 g     F ro	0000000000000010 gicd_set_ipriorityr
0000000000968d90 g     F ro	0000000000000020 memcpy
00000000009665e0 g     F ro	0000000000000020 psci_validate_mpidr
0000000000966a80 g     F ro	0000000000000088 psci_system_suspend
000000000096a380 g     F ro	0000000000000000 serror_sp_elx
00000000009656b8 g     F ro	000000000000002c cm_init_context_by_index
0000000000962f70 g     F ro	0000000000000244 dram_exit_retention
0000000000964230 g     F ro	000000000000008c gicv3_distif_init
0000000000963578 g     F ro	0000000000000768 lpddr4_swffc
0000000000960ca0 g     F ro	000000000000007c imx8m_caam_init
000000000096a080 g     F ro	0000000000000000 irq_sp_el0
0000000000968c8c g     F ro	00000000000000e8 zero_normalmem
0000000000966198 g     F ro	0000000000000048 psci_get_parent_pwr_domain_nodes
00000000009641c0 g     F ro	0000000000000070 gicv3_driver_init
00000000009713d8 g     O .bss	0000000000000004 dfs_lock
0000000000969d28 g     O ro	0000000000000008 __cb_func_spe_drain_buffers_hookcm_entering_secure_world
0000000000968178  w    F ro	0000000000000040 plat_ea_handler
0000000000968304 g     F ro	0000000000000008 console_imx_uart_flush
0000000000967368 g     F ro	0000000000000038 psci_system_off
0000000000968248 g     F ro	0000000000000004 platform_mem_init
000000000096b000 g     O .data	0000000000000050 pll
0000000000969d30 g       ro	0000000000000000 __pubsub_cm_exited_secure_world_end
0000000000961e00 g     F ro	0000000000000010 mmap_add
000000000096014c g     F ro	0000000000000080 bl31_warm_entrypoint
0000000000962780 g     F ro	0000000000000244 dram_info_init
0000000000961460 g     F ro	000000000000000c plat_get_syscnt_freq2
0000000000968d78  w    F ro	0000000000000008 plat_panic_handler
0000000000968224 g     F ro	000000000000000c imx_mailbox_init
0000000000969c50 g       ro	0000000000000000 __RT_SVC_DESCS_START__
0000000000961168  w    F ro	0000000000000014 imx_get_sys_suspend_power_state
000000000096ddc0 g       stacks	0000000000000000 __STACKS_END__
0000000000963d80 g     F ro	000000000000001c gicv3_rdistif_mark_core_asleep
0000000000969d28 g       ro	0000000000000000 __pubsub_psci_suspend_pwrdown_start_end
0000000000968b04 g     F ro	0000000000000038 clean_dcache_range
0000000000968604 g     F ro	0000000000000024 prepare_cpu_pwr_dwn
00000000009601d0 g     F ro	000000000000001c imx_m4_lpa_active
0000000000967760 g     F ro	00000000000000a4 opteed_init_optee_ep_state
0000000000968978 g     F ro	0000000000000068 restore_gp_pmcr_pauth_regs
00000000009641b8 g     F ro	0000000000000004 gicv3_distif_post_restore
0000000000966710 g     F ro	0000000000000178 psci_warmboot_entrypoint
0000000000963d40 g     F ro	000000000000003c gicv3_rdistif_mark_core_awake
0000000000969d38 g       ro	0000000000000000 __pubsub_cm_exited_normal_world_start
00000000009685ac  w    F ro	0000000000000010 plat_set_my_stack
0000000000965258 g     F ro	0000000000000028 cm_set_context_by_index
0000000000969cf0 g       ro	0000000000000000 __RT_SVC_DESCS_END__
0000000000964d18  w    F ro	000000000000004c plat_interrupt_type_to_line
0000000000963d10 g     F ro	0000000000000014 gicr_read_ipriorityr
0000000000965718 g     F ro	00000000000000c0 cm_el1_sysregs_context_save
0000000000968a70 g     F ro	0000000000000030 asm_print_hex
0000000000961350 g     F ro	000000000000008c bl31_plat_arch_setup
0000000000964f80 g     F ro	0000000000000064 bl31_main
0000000000971640 g     O .bss	0000000000000040 psci_cpu_pd_nodes
0000000000968a58 g     F ro	0000000000000018 asm_print_str
00000000009602a8  w    F ro	00000000000000e8 imx_set_cpu_pwr_on
0000000000960730 g     F ro	00000000000000b0 imx_noc_slot_config
0000000000967838 g     F ro	0000000000000028 opteed_synchronous_sp_exit
0000000000968d80  w    F ro	0000000000000004 bl31_plat_enable_mmu
0000000000960ba0 g     F ro	000000000000004c imx_aipstz_init
0000000000965588 g     F ro	0000000000000004 cm_init
00000000009614a0 g     F ro	00000000000001dc imx_gpc_pm_domain_enable
0000000000968240 g     F ro	0000000000000008 plat_crash_console_flush
000000000096a000 g       ro	0000000000000000 runtime_exceptions
00000000009608f0  w    F ro	0000000000000034 imx_gpc_handler
0000000000971490 g     O .bss	0000000000000020 rdistif_base_addrs
0000000000964c20 g     F ro	0000000000000014 gicd_write_nsacr
0000000000965990 g     F ro	0000000000000024 cm_set_elr_el3
0000000000963d28 g     F ro	0000000000000014 gicr_write_ipriorityr
0000000000969d30 g       ro	0000000000000000 __pubsub_cm_exited_secure_world_start
00000000009668c8 g     F ro	0000000000000024 psci_spd_migrate_info
00000000009611b8 g     F ro	0000000000000014 imx_system_off
00000000009685d0 g     F ro	0000000000000014 _cpu_data_by_index
0000000000960a90 g     F ro	000000000000010c imx_hab_handler
00000000009668f0 g     F ro	0000000000000004 psci_print_power_domain_map
000000000096a800 g       ro	0000000000000000 __RO_END_UNALIGNED__
0000000000964d70 g     F ro	000000000000002c plat_get_target_pwr_state
0000000000967ff0 g     F ro	00000000000000b8 console_putc
0000000000968230 g     F ro	0000000000000004 plat_secondary_cold_boot_setup
0000000000969b18 g     O ro	0000000000000048 opteed_pm
0000000000964668 g     F ro	0000000000000210 gicv3_distif_save
0000000000964c08 g     F ro	0000000000000014 gicd_write_icfgr
0000000000968d88  w    F ro	0000000000000004 plat_handle_el3_ea
0000000000960858 g     F ro	0000000000000018 imx_clear_rbc_count
0000000000960d20 g     F ro	000000000000017c imx_csu_init
0000000000966090 g     F ro	0000000000000060 psci_is_last_on_cpu
0000000000968234 g     F ro	0000000000000008 plat_crash_console_init
0000000000964ab0 g     F ro	0000000000000048 gicv3_raise_secure_g0_sgi
000000000096a680 g     F ro	0000000000000000 irq_aarch32
0000000000961728 g     F ro	00000000000000ac imx_noc_wrapper_post_resume
0000000000968acc g     F ro	0000000000000038 flush_dcache_range
0000000000968a0c g     F ro	0000000000000028 opteed_enter_sp
0000000000961be0 g     F ro	000000000000000c timer_init
0000000000961210 g     F ro	000000000000013c bl31_early_platform_setup2
000000000096b1b0 g       stacks	0000000000000000 __RELA_END__
0000000000960928  w    F ro	0000000000000164 imx_src_handler
000000000096b1b0 g       stacks	0000000000000000 __RELA_START__
0000000000964528 g     F ro	0000000000000140 gicv3_rdistif_init_restore
0000000000969d30 g     O ro	0000000000000008 __cb_func_enable_sve_hookcm_entering_normal_world
000000000096a180 g     F ro	0000000000000000 serror_sp_el0
0000000000968f00 g     F ro	00000000000004f4 vprintf
0000000000960f80 g     F ro	0000000000000030 imx_cpu_standby
0000000000963338 g     F ro	00000000000000f8 sw_pstate
00000000009650b0 g     F ro	00000000000000ac set_routing_model
0000000000961cd8 g     F ro	000000000000003c is_dcache_enabled
0000000000968418 g     F ro	0000000000000004 report_unhandled_exception
0000000000965ca0 g     F ro	00000000000000f4 psci_cpu_on_finish
0000000000968c50 g     F ro	0000000000000014 dcsw_op_all
00000000009681e0 g     F ro	0000000000000038 plat_reset_handler
00000000009683c0 g     F ro	0000000000000058 enable_mmu_direct_el3
00000000009601f0 g     F ro	0000000000000030 imx_set_cpu_secure_entry
00000000009642c8 g     F ro	0000000000000088 gicv3_rdistif_init
0000000000969d38 g       ro	0000000000000000 __pubsub_cm_entering_normal_world_end
0000000000968648 g     F ro	000000000000003c get_cpu_ops_ptr
0000000000960000 g     F ro	0000000000000144 bl31_entrypoint
0000000000965230 g     F ro	0000000000000024 cm_get_context_by_index
00000000009656e8 g     F ro	000000000000002c cm_init_my_context
000000000096a580 g     F ro	0000000000000000 serror_aarch64
0000000000964cf8  w    F ro	000000000000000c plat_ic_acknowledge_interrupt
00000000009685bc g     F ro	0000000000000014 init_cpu_data_ptr
000000000096841c g     F ro	0000000000000074 enter_lower_el_sync_ea
0000000000961d30 g     F ro	000000000000000c xlat_arch_current_el
0000000000963ea8 g     F ro	0000000000000130 gicv3_secure_spis_config_props
0000000000964b68 g     F ro	0000000000000014 gicd_read_icfgr
0000000000964b58 g     F ro	0000000000000010 gicd_read_ipriorityr
0000000000965a18 g     F ro	0000000000000100 psci_do_cpu_off
0000000000971690 g     O .bss	0000000000000004 psci_caps
0000000000960f08  w    F ro	0000000000000024 imx_pwr_domain_off
0000000000965590 g     F ro	0000000000000128 cm_setup_context
0000000000960000 g       ro	0000000000000000 __BL31_START__
000000000096a280 g     F ro	0000000000000000 irq_sp_elx
000000000096a100 g     F ro	0000000000000000 fiq_sp_el0
000000000096b1b0 g       .data	0000000000000000 __DATA_END__
00000000009617d8 g     F ro	0000000000000174 imx_gpc_init
0000000000968a74 g       ro	0000000000000000 asm_print_hex_bits
0000000000960390  w    F ro	0000000000000120 imx_set_cpu_lpm
0000000000969cf0 g       ro	0000000000000000 __CPU_OPS_START__
0000000000961b70 g     F ro	000000000000006c udelay
0000000000961c98 g     F ro	0000000000000040 tcr_physical_addr_size_bits
0000000000963fd8 g     F ro	000000000000005c gicv3_ppi_sgi_config_defaults
0000000000968b3c g     F ro	0000000000000038 inv_dcache_range
000000000096b1a0 g     O .data	0000000000000001 console_state
00000000009632b0 g     F ro	0000000000000084 dram_cfg_all_mr
0000000000960bf0 g     F ro	00000000000000ac imx_rdc_init
0000000000960eb8 g     F ro	0000000000000034 imx_pwr_domain_on
0000000000966cb0 g     F ro	000000000000032c psci_smc_handler
0000000000961c00 g     F ro	0000000000000094 generic_delay_timer_init
0000000000965d98 g     F ro	00000000000001ec psci_cpu_suspend_start
00000000009660f0 g     F ro	0000000000000010 psci_init_req_local_pwr_states
0000000000969d30 g       ro	0000000000000000 __pubsub_cm_entering_secure_world_end
0000000000961090  w    F ro	00000000000000d8 imx_domain_suspend_finish
0000000000968684 g     F ro	0000000000000010 cpu_get_rev_var
0000000000965b18 g     F ro	0000000000000188 psci_cpu_on_start
0000000000966478 g     F ro	0000000000000050 psci_find_max_off_lvl
0000000000961e90 g     F ro	00000000000000b0 xlat_desc
00000000009681b8 g     F ro	0000000000000014 plat_is_my_cpu_primary
0000000000964c90 g     F ro	0000000000000034 gicd_set_icfgr
000000000097b028 g     O coherent_ram	0000000000000040 psci_non_cpu_pd_nodes
0000000000962cf0 g     F ro	00000000000000e0 dram_clock_switch
0000000000972078 g       .bss	0000000000000000 __BSS_END__
0000000000969d28 g       ro	0000000000000000 __CPU_OPS_END__
00000000009668f8 g     F ro	0000000000000004 psci_do_pwrdown_sequence
00000000009686f0 g     F ro	000000000000003c psci_do_pwrdown_cache_maintenance
0000000000964db8 g     F ro	0000000000000060 plat_gic_init
0000000000968218 g     F ro	000000000000000c plat_get_my_entrypoint
0000000000963ce0 g     F ro	0000000000000014 gicd_read_igrpmodr
00000000009659f8 g     F ro	0000000000000020 cm_set_next_eret_context
0000000000969d28 g       ro	0000000000000000 __pubsub_cm_entering_secure_world_start
0000000000964b10 g     F ro	0000000000000014 gicd_read_isenabler
0000000000966900 g     F ro	000000000000005c psci_cpu_on
0000000000964f20 g     F ro	0000000000000060 bl31_prepare_next_image_entry
000000000097b000 g       coherent_ram	0000000000000000 __COHERENT_RAM_START__
0000000000961180 g     F ro	0000000000000034 imx_system_reset
0000000000961b10 g     F ro	000000000000002c tzc380_init
0000000000966c40 g     F ro	000000000000006c psci_features
0000000000969d28 g       ro	0000000000000000 __GOT_END__
0000000000968e00 g     F ro	0000000000000020 memset
0000000000966100 g     F ro	0000000000000094 psci_get_target_local_pwr_states
0000000000960f30  w    F ro	0000000000000050 imx_validate_power_state
00000000009659b8 g     F ro	0000000000000040 cm_write_scr_el3_bit
0000000000969d40 g       ro	0000000000000000 __pubsub_cm_exited_normal_world_end
00000000009716a0 g     O .bss	0000000000000008 optee_vector_table
0000000000968490 g     F ro	0000000000000018 enter_lower_el_async_ea
0000000000971680 g     O .bss	0000000000000008 psci_plat_pm_ops
0000000000964f08 g     F ro	0000000000000014 bl31_setup
0000000000969d28 g       ro	0000000000000000 __pubsub_psci_suspend_pwrdown_start_start
0000000000964d08  w    F ro	000000000000000c plat_ic_end_of_interrupt
0000000000969d28 g       ro	0000000000000000 __GOT_START__
0000000000964ef8 g     F ro	000000000000000c get_arm_std_svc_args
0000000000969d30 g       ro	0000000000000000 __pubsub_cm_entering_normal_world_start
0000000000967530 g     F ro	00000000000000d8 bakery_lock_get
0000000000960638  w    F ro	00000000000000f8 imx_set_sys_wakeup
0000000000961b40 g     F ro	000000000000002c tzc380_configure_region
0000000000967478 g     F ro	0000000000000064 psci_mem_protect
0000000000967608 g     F ro	0000000000000034 bakery_lock_release
00000000009651e8 g     F ro	0000000000000028 get_interrupt_type_handler
0000000000961950 g     F ro	000000000000000c plat_get_power_domain_tree_desc
0000000000964bf8 g     F ro	0000000000000010 gicd_write_ipriorityr
0000000000963430 g     F ro	0000000000000144 ddr4_swffc
000000000096eb30 g     O .bss	0000000000002880 imx_gicv3_ctx
0000000000966be8 g     F ro	0000000000000058 psci_node_hw_state
000000000096876c g     F ro	00000000000000cc el1_sysregs_context_save
0000000000960ea0 g     F ro	0000000000000014 imx_validate_ns_entrypoint
0000000000964be0 g     F ro	0000000000000014 gicd_write_isactiver
0000000000968c74 g     F ro	0000000000000010 dcsw_op_level2
0000000000968628 g     F ro	0000000000000020 init_cpu_ops
00000000009629c8 g     F ro	00000000000000d4 dram_dvfs_get_freq_info
00000000009680a8 g     F ro	0000000000000084 console_flush
000000000096a300 g     F ro	0000000000000000 fiq_sp_elx
000000000096b000 g       ro	0000000000000000 __RO_END__
000000000096a400 g     F ro	0000000000000000 sync_exception_aarch64
000000000097b000 g     O coherent_ram	0000000000000008 gpc_lock
000000000096a500 g     F ro	0000000000000000 fiq_aarch64
0000000000964af8 g     F ro	0000000000000014 gicd_read_igroupr
0000000000967fc8 g     F ro	000000000000000c console_switch_state
0000000000960870  w    F ro	000000000000007c imx_anamix_override
00000000009686e8 g     F ro	0000000000000008 spin_unlock
000000000096ddc0 g       .bss	0000000000000000 __BSS_START__
0000000000960000 g       ro	0000000000000000 __RO_START__
00000000009621e8 g     F ro	0000000000000280 mmap_add_region_ctx
0000000000967668 g     F ro	000000000000003c spe_enable
00000000009716a8 g     O .bss	0000000000000004 opteed_rw
000000000096823c g     F ro	0000000000000004 plat_crash_console_putc
0000000000971540 g     O .bss	0000000000000100 percpu_data
0000000000960220  w    F ro	0000000000000088 imx_set_cpu_pwr_off
0000000000966888 g     F ro	000000000000003c psci_register_spd_pm_hook
0000000000968694 g     F ro	0000000000000014 cpu_rev_var_hs
00000000009642c0  w    F ro	0000000000000004 gicv3_rdistif_on
00000000009686c8 g     F ro	0000000000000020 spin_lock
0000000000964418 g     F ro	000000000000000c gicv3_get_pending_interrupt_type
0000000000968a34 g     F ro	0000000000000024 opteed_exit_sp
0000000000962dd0 g     F ro	000000000000019c dram_enter_retention
0000000000964e60 g     F ro	000000000000004c plat_gic_save
0000000000966078 g     F ro	0000000000000014 psci_query_sys_suspend_pwrstate
0000000000969888 g     O ro	0000000000000004 imx_power_domain_tree_desc
0000000000964e48 g     F ro	0000000000000014 plat_gic_pcpu_init
0000000000967ee8 g     F ro	00000000000000a0 tf_log
0000000000969d28 g       ro	0000000000000000 __pubsub_psci_cpu_on_finish_start
0000000000965088 g     F ro	0000000000000028 get_scr_el3_from_routing_model
00000000009631b8 g     F ro	00000000000000f4 ddr4_mr_write
000000000097c000 g       coherent_ram	0000000000000000 __RW_END__
000000000097b068 g       coherent_ram	0000000000000000 __COHERENT_RAM_END_UNALIGNED__
00000000009613e0 g     F ro	0000000000000058 bl31_platform_setup
000000000096b1c0 g       stacks	0000000000000000 __STACKS_START__
00000000009716b0 g     O .bss	00000000000009c0 opteed_sp_context
0000000000964878 g     F ro	0000000000000238 gicv3_distif_init_restore
00000000009662a0 g     F ro	00000000000001d4 psci_do_state_coordination
00000000009673d8 g     F ro	000000000000009c psci_system_reset2
0000000000961e48 g     F ro	0000000000000048 enable_mmu_el3
000000000096a780 g     F ro	0000000000000000 serror_aarch32
0000000000968d84  w    F ro	0000000000000004 plat_handle_double_fault
0000000000967718 g     F ro	0000000000000048 sve_enable
0000000000967808 g     F ro	0000000000000030 opteed_synchronous_sp_entry
00000000009611d0 g     F ro	000000000000003c imx_pwr_domain_pwr_down_wfi
00000000009624b0 g     F ro	0000000000000134 init_xlat_tables_ctx
00000000009682a0 g     F ro	0000000000000008 console_imx_uart_init
0000000000964148 g     F ro	000000000000002c arm_gicv3_distif_pre_save
0000000000969d28 g       ro	0000000000000000 __pubsub_psci_suspend_pwrdown_finish_start
0000000000963e10 g     F ro	0000000000000094 gicv3_spis_config_defaults
00000000009607e0 g     F ro	0000000000000058 imx_set_sys_lpm
00000000009681cc g     F ro	0000000000000014 plat_my_core_pos
0000000000964038 g     F ro	000000000000010c gicv3_secure_ppi_sgi_config_props
0000000000965280 g     F ro	0000000000000158 runtime_svc_init
0000000000964b28 g     F ro	0000000000000014 gicd_read_ispendr
000000000096a480 g     F ro	0000000000000000 irq_aarch64
00000000009713e0 g     O .bss	00000000000000a8 dram_info
00000000009641b0 g     F ro	0000000000000004 gicv3_distif_pre_save
0000000000964d68  w    F ro	0000000000000004 plat_ic_raise_el3_sgi
00000000009626d0 g     F ro	00000000000000b0 dram_phy_init
00000000009674e0 g     F ro	000000000000004c psci_mem_chk_range
0000000000968aa0  w      ro	0000000000000000 el3_panic
0000000000964c38 g     F ro	0000000000000024 gicd_clr_igroupr
0000000000964e30 g     F ro	0000000000000014 plat_gic_cpuif_disable
0000000000965160 g     F ro	0000000000000084 register_interrupt_type_handler
0000000000969478 g     F ro	000000000000002c strchr
0000000000971488 g     O .bss	0000000000000008 gicv3_driver_data
00000000009625e8 g     F ro	0000000000000004 xlat_mmap_print
00000000009604b0  w    F ro	0000000000000188 imx_set_cluster_powerdown
0000000000966500 g     F ro	0000000000000074 psci_acquire_pwr_domain_locks
0000000000962690 g     F ro	000000000000003c dram_umctl2_init
0000000000962aa0 g     F ro	0000000000000180 dram_dvfs_handler
0000000000969d28 g       ro	0000000000000000 __pubsub_psci_cpu_on_finish_end
0000000000968838 g     F ro	00000000000000cc el1_sysregs_context_restore
00000000009682e0 g     F ro	0000000000000024 console_imx_uart_getc
0000000000972070 g     O .bss	0000000000000008 console_list
00000000009661e0 g     F ro	00000000000000bc psci_set_pwr_domains_to_run
0000000000964350 g     F ro	0000000000000088 gicv3_cpuif_enable
0000000000964178 g     F ro	0000000000000034 arm_gicv3_distif_post_restore
0000000000964b98 g     F ro	0000000000000014 gicd_write_igroupr
0000000000968418 g       ro	0000000000000000 report_unhandled_interrupt
00000000009619a0 g     F ro	000000000000005c imx_buildinfo_handler
000000000096a700 g     F ro	0000000000000000 fiq_aarch32
0000000000968590  w    F ro	000000000000001c plat_get_my_stack
0000000000961dc0 g     F ro	000000000000003c mmap_add_region
0000000000964b40 g     F ro	0000000000000014 gicd_read_isactiver
0000000000964428 g     F ro	0000000000000100 gicv3_rdistif_save
0000000000971688 g     O .bss	0000000000000008 psci_spd_pm
0000000000964da8 g     F ro	000000000000000c plat_gic_driver_init
0000000000964e18 g     F ro	0000000000000014 plat_gic_cpuif_enable



Disassembly of section ro:

0000000000960000 <bl31_entrypoint>:
  960000:	aa0003f4 	mov	x20, x0
  960004:	aa0103f5 	mov	x21, x1
  960008:	aa0203f6 	mov	x22, x2
  96000c:	aa0303f7 	mov	x23, x3
  960010:	d2810600 	mov	x0, #0x830                 	// #2096
  960014:	f2a618a0 	movk	x0, #0x30c5, lsl #16
  960018:	d51e1000 	msr	sctlr_el3, x0
  96001c:	d5033fdf 	isb
  960020:	9400207e 	bl	968218 <plat_get_my_entrypoint>
  960024:	b4000040 	cbz	x0, 96002c <do_cold_boot>
  960028:	d61f0000 	br	x0

000000000096002c <do_cold_boot>:
  96002c:	1004fea0 	adr	x0, 96a000 <sync_exception_sp_el0>
  960030:	d51ec000 	msr	vbar_el3, x0
  960034:	d5033fdf 	isb
  960038:	9400216b 	bl	9685e4 <reset_handler>
  96003c:	d2820141 	mov	x1, #0x100a                	// #4106
  960040:	d53e1000 	mrs	x0, sctlr_el3
  960044:	aa010000 	orr	x0, x0, x1
  960048:	d51e1000 	msr	sctlr_el3, x0
  96004c:	d5033fdf 	isb
  960050:	9400215b 	bl	9685bc <init_cpu_data_ptr>
  960054:	d2804700 	mov	x0, #0x238                 	// #568
  960058:	d51e1100 	msr	scr_el3, x0
  96005c:	d2900000 	mov	x0, #0x8000                	// #32768
  960060:	f2a01020 	movk	x0, #0x81, lsl #16
  960064:	d51e1320 	msr	mdcr_el3, x0
  960068:	d2801c00 	mov	x0, #0xe0                  	// #224
  96006c:	d51b9c00 	msr	pmcr_el0, x0
  960070:	d50344ff 	msr	daifclr, #0x4
  960074:	d2800000 	mov	x0, #0x0                   	// #0
  960078:	d51e1140 	msr	cptr_el3, x0
  96007c:	d5380400 	mrs	x0, id_aa64pfr0_el1
  960080:	d370cc00 	ubfx	x0, x0, #48, #4
  960084:	f100041f 	cmp	x0, #0x1
  960088:	54000061 	b.ne	960094 <do_cold_boot+0x68>  // b.any
  96008c:	d2a02000 	mov	x0, #0x1000000             	// #16777216
  960090:	d51b42a0 	msr	dit, x0
  960094:	94002049 	bl	9681b8 <plat_is_my_cpu_primary>
  960098:	35000060 	cbnz	w0, 9600a4 <do_primary_cold_boot>
  96009c:	94002065 	bl	968230 <plat_secondary_cold_boot_setup>
  9600a0:	94002280 	bl	968aa0 <do_panic>

00000000009600a4 <do_primary_cold_boot>:
  9600a4:	94002069 	bl	968248 <platform_mem_init>
  9600a8:	f0000040 	adrp	x0, 96b000 <__RO_END__>
  9600ac:	91000000 	add	x0, x0, #0x0
  9600b0:	900000e1 	adrp	x1, 97c000 <__BL31_END__>
  9600b4:	91000021 	add	x1, x1, #0x0
  9600b8:	cb000021 	sub	x1, x1, x0
  9600bc:	940022a0 	bl	968b3c <inv_dcache_range>
  9600c0:	b0000060 	adrp	x0, 96d000 <__STACKS_START__+0x1e40>
  9600c4:	91370000 	add	x0, x0, #0xdc0
  9600c8:	d0000081 	adrp	x1, 972000 <opteed_sp_context+0x950>
  9600cc:	9101e021 	add	x1, x1, #0x78
  9600d0:	cb000021 	sub	x1, x1, x0
  9600d4:	940022ec 	bl	968c84 <zeromem>
  9600d8:	f00000c0 	adrp	x0, 97b000 <gpc_lock>
  9600dc:	91000000 	add	x0, x0, #0x0
  9600e0:	f00000c1 	adrp	x1, 97b000 <gpc_lock>
  9600e4:	9101a021 	add	x1, x1, #0x68
  9600e8:	cb000021 	sub	x1, x1, x0
  9600ec:	940022e6 	bl	968c84 <zeromem>
  9600f0:	d50040bf 	msr	spsel, #0x0
  9600f4:	9400212e 	bl	9685ac <plat_set_my_stack>
  9600f8:	d2800014 	mov	x20, #0x0                   	// #0
  9600fc:	d2800015 	mov	x21, #0x0                   	// #0
  960100:	d2800016 	mov	x22, #0x0                   	// #0
  960104:	d2800017 	mov	x23, #0x0                   	// #0
  960108:	aa1403e0 	mov	x0, x20
  96010c:	aa1503e1 	mov	x1, x21
  960110:	aa1603e2 	mov	x2, x22
  960114:	aa1703e3 	mov	x3, x23
  960118:	9400137c 	bl	964f08 <bl31_setup>
  96011c:	94001399 	bl	964f80 <bl31_main>
  960120:	10057700 	adr	x0, 96b000 <__RO_END__>
  960124:	10058461 	adr	x1, 96b1b0 <__DATA_END__>
  960128:	cb000021 	sub	x1, x1, x0
  96012c:	94002276 	bl	968b04 <clean_dcache_range>
  960130:	1006e480 	adr	x0, 96ddc0 <__STACKS_END__>
  960134:	1008fa21 	adr	x1, 972078 <__BSS_END__>
  960138:	cb000021 	sub	x1, x1, x0
  96013c:	94002272 	bl	968b04 <clean_dcache_range>
  960140:	14002228 	b	9689e0 <el3_exit>

0000000000960144 <stm>:
  960144:	5d1b0020 	.word	0x5d1b0020
  960148:	00000000 	.word	0x00000000

000000000096014c <bl31_warm_entrypoint>:
  96014c:	1004f5a0 	adr	x0, 96a000 <sync_exception_sp_el0>
  960150:	d51ec000 	msr	vbar_el3, x0
  960154:	d5033fdf 	isb
  960158:	94002123 	bl	9685e4 <reset_handler>
  96015c:	d2820141 	mov	x1, #0x100a                	// #4106
  960160:	d53e1000 	mrs	x0, sctlr_el3
  960164:	aa010000 	orr	x0, x0, x1
  960168:	d51e1000 	msr	sctlr_el3, x0
  96016c:	d5033fdf 	isb
  960170:	94002113 	bl	9685bc <init_cpu_data_ptr>
  960174:	d2804700 	mov	x0, #0x238                 	// #568
  960178:	d51e1100 	msr	scr_el3, x0
  96017c:	d2900000 	mov	x0, #0x8000                	// #32768
  960180:	f2a01020 	movk	x0, #0x81, lsl #16
  960184:	d51e1320 	msr	mdcr_el3, x0
  960188:	d2801c00 	mov	x0, #0xe0                  	// #224
  96018c:	d51b9c00 	msr	pmcr_el0, x0
  960190:	d50344ff 	msr	daifclr, #0x4
  960194:	d2800000 	mov	x0, #0x0                   	// #0
  960198:	d51e1140 	msr	cptr_el3, x0
  96019c:	d5380400 	mrs	x0, id_aa64pfr0_el1
  9601a0:	d370cc00 	ubfx	x0, x0, #48, #4
  9601a4:	f100041f 	cmp	x0, #0x1
  9601a8:	54000061 	b.ne	9601b4 <bl31_warm_entrypoint+0x68>  // b.any
  9601ac:	d2a02000 	mov	x0, #0x1000000             	// #16777216
  9601b0:	d51b42a0 	msr	dit, x0
  9601b4:	d50040bf 	msr	spsel, #0x0
  9601b8:	940020fd 	bl	9685ac <plat_set_my_stack>
  9601bc:	d2800020 	mov	x0, #0x1                   	// #1
  9601c0:	940022f0 	bl	968d80 <bl31_plat_enable_mmu>
  9601c4:	94001953 	bl	966710 <psci_warmboot_entrypoint>
  9601c8:	14002206 	b	9689e0 <el3_exit>
  9601cc:	00000000 	.inst	0x00000000 ; undefined

00000000009601d0 <imx_m4_lpa_active>:
  9601d0:	d2801281 	mov	x1, #0x94                  	// #148
  9601d4:	528aaaa0 	mov	w0, #0x5555                	// #21845
  9601d8:	f2a60721 	movk	x1, #0x3039, lsl #16
  9601dc:	b9400021 	ldr	w1, [x1]
  9601e0:	6b00003f 	cmp	w1, w0
  9601e4:	1a9f17e0 	cset	w0, eq  // eq = none
  9601e8:	d65f03c0 	ret
  9601ec:	00000000 	.inst	0x00000000 ; undefined

00000000009601f0 <imx_set_cpu_secure_entry>:
  9601f0:	531d7000 	lsl	w0, w0, #3
  9601f4:	52800e82 	mov	w2, #0x74                  	// #116
  9601f8:	72a60722 	movk	w2, #0x3039, lsl #16
  9601fc:	52800f03 	mov	w3, #0x78                  	// #120
  960200:	0b020002 	add	w2, w0, w2
  960204:	72a60723 	movk	w3, #0x3039, lsl #16
  960208:	0b030000 	add	w0, w0, w3
  96020c:	d3589c23 	ubfx	x3, x1, #24, #16
  960210:	53025c21 	ubfx	w1, w1, #2, #22
  960214:	b9000043 	str	w3, [x2]
  960218:	b9000001 	str	w1, [x0]
  96021c:	d65f03c0 	ret

0000000000960220 <imx_set_cpu_pwr_off>:
  960220:	a9be7bfd 	stp	x29, x30, [sp, #-32]!
  960224:	910003fd 	mov	x29, sp
  960228:	a90153f3 	stp	x19, x20, [sp, #16]
  96022c:	f00000d4 	adrp	x20, 97b000 <gpc_lock>
  960230:	91000294 	add	x20, x20, #0x0
  960234:	2a0003f3 	mov	w19, w0
  960238:	aa1403e0 	mov	x0, x20
  96023c:	94001cbd 	bl	967530 <bakery_lock_get>
  960240:	7100067f 	cmp	w19, #0x1
  960244:	540002a9 	b.ls	960298 <imx_set_cpu_pwr_off+0x78>  // b.plast
  960248:	11001a61 	add	w1, w19, #0x6
  96024c:	52800022 	mov	w2, #0x1                   	// #1
  960250:	531f7821 	lsl	w1, w1, #1
  960254:	1ac12041 	lsl	w1, w2, w1
  960258:	d2800082 	mov	x2, #0x4                   	// #4
  96025c:	11703a73 	add	w19, w19, #0xc0e, lsl #12
  960260:	f2a60742 	movk	x2, #0x303a, lsl #16
  960264:	11208273 	add	w19, w19, #0x820
  960268:	aa1403e0 	mov	x0, x20
  96026c:	b9400043 	ldr	w3, [x2]
  960270:	531a6673 	lsl	w19, w19, #6
  960274:	2a030021 	orr	w1, w1, w3
  960278:	b9000041 	str	w1, [x2]
  96027c:	94001ce3 	bl	967608 <bakery_lock_release>
  960280:	b9400260 	ldr	w0, [x19]
  960284:	32000000 	orr	w0, w0, #0x1
  960288:	b9000260 	str	w0, [x19]
  96028c:	a94153f3 	ldp	x19, x20, [sp, #16]
  960290:	a8c27bfd 	ldp	x29, x30, [sp], #32
  960294:	d65f03c0 	ret
  960298:	531f7a60 	lsl	w0, w19, #1
  96029c:	52800021 	mov	w1, #0x1                   	// #1
  9602a0:	1ac02021 	lsl	w1, w1, w0
  9602a4:	17ffffed 	b	960258 <imx_set_cpu_pwr_off+0x38>

00000000009602a8 <imx_set_cpu_pwr_on>:
  9602a8:	a9be7bfd 	stp	x29, x30, [sp, #-32]!
  9602ac:	910003fd 	mov	x29, sp
  9602b0:	a90153f3 	stp	x19, x20, [sp, #16]
  9602b4:	f00000d4 	adrp	x20, 97b000 <gpc_lock>
  9602b8:	91000294 	add	x20, x20, #0x0
  9602bc:	2a0003f3 	mov	w19, w0
  9602c0:	aa1403e0 	mov	x0, x20
  9602c4:	94001c9b 	bl	967530 <bakery_lock_get>
  9602c8:	7100067f 	cmp	w19, #0x1
  9602cc:	540005a9 	b.ls	960380 <imx_set_cpu_pwr_on+0xd8>  // b.plast
  9602d0:	11001a60 	add	w0, w19, #0x6
  9602d4:	52800021 	mov	w1, #0x1                   	// #1
  9602d8:	531f7800 	lsl	w0, w0, #1
  9602dc:	1ac02021 	lsl	w1, w1, w0
  9602e0:	d2800082 	mov	x2, #0x4                   	// #4
  9602e4:	aa1403e0 	mov	x0, x20
  9602e8:	f2a60742 	movk	x2, #0x303a, lsl #16
  9602ec:	b9400043 	ldr	w3, [x2]
  9602f0:	0a210061 	bic	w1, w3, w1
  9602f4:	b9000041 	str	w1, [x2]
  9602f8:	94001cc4 	bl	967608 <bakery_lock_release>
  9602fc:	d2800104 	mov	x4, #0x8                   	// #8
  960300:	11703a63 	add	w3, w19, #0xc0e, lsl #12
  960304:	f2a60724 	movk	x4, #0x3039, lsl #16
  960308:	11208063 	add	w3, w3, #0x820
  96030c:	52800021 	mov	w1, #0x1                   	// #1
  960310:	d2801e00 	mov	x0, #0xf0                  	// #240
  960314:	b9400082 	ldr	w2, [x4]
  960318:	531a6463 	lsl	w3, w3, #6
  96031c:	1ad32021 	lsl	w1, w1, w19
  960320:	f2a60740 	movk	x0, #0x303a, lsl #16
  960324:	0a210042 	bic	w2, w2, w1
  960328:	b9000082 	str	w2, [x4]
  96032c:	aa0003e2 	mov	x2, x0
  960330:	b9400064 	ldr	w4, [x3]
  960334:	32000084 	orr	w4, w4, #0x1
  960338:	b9000064 	str	w4, [x3]
  96033c:	b9400004 	ldr	w4, [x0]
  960340:	2a040024 	orr	w4, w1, w4
  960344:	b9000004 	str	w4, [x0]
  960348:	b9400040 	ldr	w0, [x2]
  96034c:	6a00003f 	tst	w1, w0
  960350:	54ffffc1 	b.ne	960348 <imx_set_cpu_pwr_on+0xa0>  // b.any
  960354:	b9400060 	ldr	w0, [x3]
  960358:	d2800102 	mov	x2, #0x8                   	// #8
  96035c:	f2a60722 	movk	x2, #0x3039, lsl #16
  960360:	121f7800 	and	w0, w0, #0xfffffffe
  960364:	a94153f3 	ldp	x19, x20, [sp, #16]
  960368:	b9000060 	str	w0, [x3]
  96036c:	b9400040 	ldr	w0, [x2]
  960370:	2a000021 	orr	w1, w1, w0
  960374:	b9000041 	str	w1, [x2]
  960378:	a8c27bfd 	ldp	x29, x30, [sp], #32
  96037c:	d65f03c0 	ret
  960380:	531f7a60 	lsl	w0, w19, #1
  960384:	52800021 	mov	w1, #0x1                   	// #1
  960388:	1ac02021 	lsl	w1, w1, w0
  96038c:	17ffffd5 	b	9602e0 <imx_set_cpu_pwr_on+0x38>

0000000000960390 <imx_set_cpu_lpm>:
  960390:	a9bd7bfd 	stp	x29, x30, [sp, #-48]!
  960394:	910003fd 	mov	x29, sp
  960398:	a90153f3 	stp	x19, x20, [sp, #16]
  96039c:	f00000d4 	adrp	x20, 97b000 <gpc_lock>
  9603a0:	91000294 	add	x20, x20, #0x0
  9603a4:	2a0003f3 	mov	w19, w0
  9603a8:	aa1403e0 	mov	x0, x20
  9603ac:	f90013f5 	str	x21, [sp, #32]
  9603b0:	12001c35 	and	w21, w1, #0xff
  9603b4:	94001c5f 	bl	967530 <bakery_lock_get>
  9603b8:	7100067f 	cmp	w19, #0x1
  9603bc:	34000335 	cbz	w21, 960420 <imx_set_cpu_lpm+0x90>
  9603c0:	540006c9 	b.ls	960498 <imx_set_cpu_lpm+0x108>  // b.plast
  9603c4:	11001a61 	add	w1, w19, #0x6
  9603c8:	52800020 	mov	w0, #0x1                   	// #1
  9603cc:	531f7821 	lsl	w1, w1, #1
  9603d0:	11002022 	add	w2, w1, #0x8
  9603d4:	1ac12001 	lsl	w1, w0, w1
  9603d8:	1ac22000 	lsl	w0, w0, w2
  9603dc:	d2800082 	mov	x2, #0x4                   	// #4
  9603e0:	11703a73 	add	w19, w19, #0xc0e, lsl #12
  9603e4:	f2a60742 	movk	x2, #0x303a, lsl #16
  9603e8:	11208273 	add	w19, w19, #0x820
  9603ec:	2a010000 	orr	w0, w0, w1
  9603f0:	b9400041 	ldr	w1, [x2]
  9603f4:	531a6673 	lsl	w19, w19, #6
  9603f8:	f94013f5 	ldr	x21, [sp, #32]
  9603fc:	2a010000 	orr	w0, w0, w1
  960400:	b9000040 	str	w0, [x2]
  960404:	b9400260 	ldr	w0, [x19]
  960408:	32000000 	orr	w0, w0, #0x1
  96040c:	b9000260 	str	w0, [x19]
  960410:	aa1403e0 	mov	x0, x20
  960414:	a94153f3 	ldp	x19, x20, [sp, #16]
  960418:	a8c37bfd 	ldp	x29, x30, [sp], #48
  96041c:	14001c7b 	b	967608 <bakery_lock_release>
  960420:	54000309 	b.ls	960480 <imx_set_cpu_lpm+0xf0>  // b.plast
  960424:	11001a61 	add	w1, w19, #0x6
  960428:	52800020 	mov	w0, #0x1                   	// #1
  96042c:	531f7821 	lsl	w1, w1, #1
  960430:	11002022 	add	w2, w1, #0x8
  960434:	1ac12001 	lsl	w1, w0, w1
  960438:	1ac22000 	lsl	w0, w0, w2
  96043c:	d2800082 	mov	x2, #0x4                   	// #4
  960440:	11703a73 	add	w19, w19, #0xc0e, lsl #12
  960444:	f2a60742 	movk	x2, #0x303a, lsl #16
  960448:	11208273 	add	w19, w19, #0x820
  96044c:	2a010000 	orr	w0, w0, w1
  960450:	b9400041 	ldr	w1, [x2]
  960454:	531a6673 	lsl	w19, w19, #6
  960458:	f94013f5 	ldr	x21, [sp, #32]
  96045c:	0a200020 	bic	w0, w1, w0
  960460:	b9000040 	str	w0, [x2]
  960464:	b9400260 	ldr	w0, [x19]
  960468:	121f7800 	and	w0, w0, #0xfffffffe
  96046c:	b9000260 	str	w0, [x19]
  960470:	aa1403e0 	mov	x0, x20
  960474:	a94153f3 	ldp	x19, x20, [sp, #16]
  960478:	a8c37bfd 	ldp	x29, x30, [sp], #48
  96047c:	14001c63 	b	967608 <bakery_lock_release>
  960480:	531f7a61 	lsl	w1, w19, #1
  960484:	52800020 	mov	w0, #0x1                   	// #1
  960488:	11002022 	add	w2, w1, #0x8
  96048c:	1ac12001 	lsl	w1, w0, w1
  960490:	1ac22000 	lsl	w0, w0, w2
  960494:	17ffffea 	b	96043c <imx_set_cpu_lpm+0xac>
  960498:	531f7a61 	lsl	w1, w19, #1
  96049c:	52800020 	mov	w0, #0x1                   	// #1
  9604a0:	11002022 	add	w2, w1, #0x8
  9604a4:	1ac12001 	lsl	w1, w0, w1
  9604a8:	1ac22000 	lsl	w0, w0, w2
  9604ac:	17ffffcc 	b	9603dc <imx_set_cpu_lpm+0x4c>

00000000009604b0 <imx_set_cluster_powerdown>:
  9604b0:	72001c21 	ands	w1, w1, #0xff
  9604b4:	54000780 	b.eq	9605a4 <imx_set_cluster_powerdown+0xf4>  // b.none
  9604b8:	7100043f 	cmp	w1, #0x1
  9604bc:	540004e0 	b.eq	960558 <imx_set_cluster_powerdown+0xa8>  // b.none
  9604c0:	d2a60744 	mov	x4, #0x303a0000            	// #809107456
  9604c4:	d2802102 	mov	x2, #0x108                 	// #264
  9604c8:	52800143 	mov	w3, #0xa                   	// #10
  9604cc:	f2a60742 	movk	x2, #0x303a, lsl #16
  9604d0:	b9400080 	ldr	w0, [x4]
  9604d4:	d2800085 	mov	x5, #0x4                   	// #4
  9604d8:	f2a60745 	movk	x5, #0x303a, lsl #16
  9604dc:	51000c21 	sub	w1, w1, #0x3
  9604e0:	12117800 	and	w0, w0, #0xffffbfff
  9604e4:	7100043f 	cmp	w1, #0x1
  9604e8:	2a030000 	orr	w0, w0, w3
  9604ec:	b9000080 	str	w0, [x4]
  9604f0:	b9400040 	ldr	w0, [x2]
  9604f4:	2a030000 	orr	w0, w0, w3
  9604f8:	b9000040 	str	w0, [x2]
  9604fc:	b94000a0 	ldr	w0, [x5]
  960500:	121a7800 	and	w0, w0, #0xffffffdf
  960504:	54000488 	b.hi	960594 <imx_set_cluster_powerdown+0xe4>  // b.pmore
  960508:	b940b081 	ldr	w1, [x4, #176]
  96050c:	d2801783 	mov	x3, #0xbc                  	// #188
  960510:	f2a60743 	movk	x3, #0x303a, lsl #16
  960514:	320e83e6 	mov	w6, #0x40004               	// #262148
  960518:	32180021 	orr	w1, w1, #0x100
  96051c:	b900b081 	str	w1, [x4, #176]
  960520:	52800207 	mov	w7, #0x10                  	// #16
  960524:	b9400061 	ldr	w1, [x3]
  960528:	72b00007 	movk	w7, #0x8000, lsl #16
  96052c:	2a070000 	orr	w0, w0, w7
  960530:	32170021 	orr	w1, w1, #0x200
  960534:	b9000061 	str	w1, [x3]
  960538:	b90020a6 	str	w6, [x5, #32]
  96053c:	b947f841 	ldr	w1, [x2, #2040]
  960540:	32000021 	orr	w1, w1, #0x1
  960544:	b907f841 	str	w1, [x2, #2040]
  960548:	d2800081 	mov	x1, #0x4                   	// #4
  96054c:	f2a60741 	movk	x1, #0x303a, lsl #16
  960550:	b9000020 	str	w0, [x1]
  960554:	d65f03c0 	ret
  960558:	d2a60743 	mov	x3, #0x303a0000            	// #809107456
  96055c:	d2802101 	mov	x1, #0x108                 	// #264
  960560:	528000a2 	mov	w2, #0x5                   	// #5
  960564:	f2a60741 	movk	x1, #0x303a, lsl #16
  960568:	b9400060 	ldr	w0, [x3]
  96056c:	d2800084 	mov	x4, #0x4                   	// #4
  960570:	f2a60744 	movk	x4, #0x303a, lsl #16
  960574:	12117800 	and	w0, w0, #0xffffbfff
  960578:	2a020000 	orr	w0, w0, w2
  96057c:	b9000060 	str	w0, [x3]
  960580:	b9400020 	ldr	w0, [x1]
  960584:	2a020000 	orr	w0, w0, w2
  960588:	b9000020 	str	w0, [x1]
  96058c:	b9400080 	ldr	w0, [x4]
  960590:	121a7800 	and	w0, w0, #0xffffffdf
  960594:	d2800081 	mov	x1, #0x4                   	// #4
  960598:	f2a60741 	movk	x1, #0x303a, lsl #16
  96059c:	b9000020 	str	w0, [x1]
  9605a0:	d65f03c0 	ret
  9605a4:	d2801601 	mov	x1, #0xb0                  	// #176
  9605a8:	d2801785 	mov	x5, #0xbc                  	// #188
  9605ac:	f2a60741 	movk	x1, #0x303a, lsl #16
  9605b0:	f2a60745 	movk	x5, #0x303a, lsl #16
  9605b4:	d2800486 	mov	x6, #0x24                  	// #36
  9605b8:	d2812004 	mov	x4, #0x900                 	// #2304
  9605bc:	b9400020 	ldr	w0, [x1]
  9605c0:	f2a60746 	movk	x6, #0x303a, lsl #16
  9605c4:	f2a60744 	movk	x4, #0x303a, lsl #16
  9605c8:	320183e7 	mov	w7, #0x80008000            	// #-2147450880
  9605cc:	12177800 	and	w0, w0, #0xfffffeff
  9605d0:	b9000020 	str	w0, [x1]
  9605d4:	d2a60743 	mov	x3, #0x303a0000            	// #809107456
  9605d8:	d2802102 	mov	x2, #0x108                 	// #264
  9605dc:	b94000a0 	ldr	w0, [x5]
  9605e0:	f2a60742 	movk	x2, #0x303a, lsl #16
  9605e4:	d2800081 	mov	x1, #0x4                   	// #4
  9605e8:	12167800 	and	w0, w0, #0xfffffdff
  9605ec:	b90000a0 	str	w0, [x5]
  9605f0:	b90000c7 	str	w7, [x6]
  9605f4:	f2a60741 	movk	x1, #0x303a, lsl #16
  9605f8:	b9400080 	ldr	w0, [x4]
  9605fc:	121f7800 	and	w0, w0, #0xfffffffe
  960600:	b9000080 	str	w0, [x4]
  960604:	b9400060 	ldr	w0, [x3]
  960608:	121c6c00 	and	w0, w0, #0xfffffff0
  96060c:	32120000 	orr	w0, w0, #0x4000
  960610:	b9000060 	str	w0, [x3]
  960614:	b9400040 	ldr	w0, [x2]
  960618:	121c6c00 	and	w0, w0, #0xfffffff0
  96061c:	b9000040 	str	w0, [x2]
  960620:	b9400020 	ldr	w0, [x1]
  960624:	12007800 	and	w0, w0, #0x7fffffff
  960628:	121b7800 	and	w0, w0, #0xffffffef
  96062c:	321b0000 	orr	w0, w0, #0x20
  960630:	b9000020 	str	w0, [x1]
  960634:	d65f03c0 	ret

0000000000960638 <imx_set_sys_wakeup>:
  960638:	72001c21 	ands	w1, w1, #0xff
  96063c:	54000180 	b.eq	96066c <imx_set_sys_wakeup+0x34>  // b.none
  960640:	7100041f 	cmp	w0, #0x1
  960644:	540006e9 	b.ls	960720 <imx_set_sys_wakeup+0xe8>  // b.plast
  960648:	11005003 	add	w3, w0, #0x14
  96064c:	52800022 	mov	w2, #0x1                   	// #1
  960650:	1ac32042 	lsl	w2, w2, w3
  960654:	d2a60743 	mov	x3, #0x303a0000            	// #809107456
  960658:	b9400064 	ldr	w4, [x3]
  96065c:	0a220082 	bic	w2, w4, w2
  960660:	32020042 	orr	w2, w2, #0x40000000
  960664:	b9000062 	str	w2, [x3]
  960668:	1400000b 	b	960694 <imx_set_sys_wakeup+0x5c>
  96066c:	7100041f 	cmp	w0, #0x1
  960670:	54000509 	b.ls	960710 <imx_set_sys_wakeup+0xd8>  // b.plast
  960674:	11005003 	add	w3, w0, #0x14
  960678:	52800022 	mov	w2, #0x1                   	// #1
  96067c:	1ac32043 	lsl	w3, w2, w3
  960680:	d2a60744 	mov	x4, #0x303a0000            	// #809107456
  960684:	b9400082 	ldr	w2, [x4]
  960688:	12017842 	and	w2, w2, #0xbfffffff
  96068c:	2a030042 	orr	w2, w2, w3
  960690:	b9000082 	str	w2, [x4]
  960694:	b0000044 	adrp	x4, 969000 <vprintf+0x100>
  960698:	9113e084 	add	x4, x4, #0x4f8
  96069c:	52a60743 	mov	w3, #0x303a0000            	// #809107456
  9606a0:	d2802007 	mov	x7, #0x100                 	// #256
  9606a4:	52800402 	mov	w2, #0x20                  	// #32
  9606a8:	f2a71007 	movk	x7, #0x3880, lsl #16
  9606ac:	b8605886 	ldr	w6, [x4, w0, uxtw #2]
  9606b0:	0b0300c3 	add	w3, w6, w3
  9606b4:	53057c40 	lsr	w0, w2, #5
  9606b8:	2a0303e5 	mov	w5, w3
  9606bc:	11008042 	add	w2, w2, #0x20
  9606c0:	12800004 	mov	w4, #0xffffffff            	// #-1
  9606c4:	531e7400 	lsl	w0, w0, #2
  9606c8:	34000061 	cbz	w1, 9606d4 <imx_set_sys_wakeup+0x9c>
  9606cc:	b86048e4 	ldr	w4, [x7, w0, uxtw]
  9606d0:	2a2403e4 	mvn	w4, w4
  9606d4:	b90000a4 	str	w4, [x5]
  9606d8:	11001063 	add	w3, w3, #0x4
  9606dc:	7102805f 	cmp	w2, #0xa0
  9606e0:	54fffea1 	b.ne	9606b4 <imx_set_sys_wakeup+0x7c>  // b.any
  9606e4:	d2800b00 	mov	x0, #0x58                  	// #88
  9606e8:	f2a60680 	movk	x0, #0x3034, lsl #16
  9606ec:	b9400000 	ldr	w0, [x0]
  9606f0:	370000e0 	tbnz	w0, #0, 96070c <imx_set_sys_wakeup+0xd4>
  9606f4:	52800100 	mov	w0, #0x8                   	// #8
  9606f8:	72a60740 	movk	w0, #0x303a, lsl #16
  9606fc:	0b0000c6 	add	w6, w6, w0
  960700:	b94000c0 	ldr	w0, [x6]
  960704:	12077800 	and	w0, w0, #0xfeffffff
  960708:	b90000c0 	str	w0, [x6]
  96070c:	d65f03c0 	ret
  960710:	11007003 	add	w3, w0, #0x1c
  960714:	52800022 	mov	w2, #0x1                   	// #1
  960718:	1ac32043 	lsl	w3, w2, w3
  96071c:	17ffffd9 	b	960680 <imx_set_sys_wakeup+0x48>
  960720:	11007003 	add	w3, w0, #0x1c
  960724:	52800022 	mov	w2, #0x1                   	// #1
  960728:	1ac32042 	lsl	w2, w2, w3
  96072c:	17ffffca 	b	960654 <imx_set_sys_wakeup+0x1c>

0000000000960730 <imx_noc_slot_config>:
  960730:	72001c1f 	tst	w0, #0xff
  960734:	540002e0 	b.eq	960790 <imx_noc_slot_config+0x60>  // b.none
  960738:	d2801684 	mov	x4, #0xb4                  	// #180
  96073c:	d2801703 	mov	x3, #0xb8                  	// #184
  960740:	f2a60744 	movk	x4, #0x303a, lsl #16
  960744:	f2a60743 	movk	x3, #0x303a, lsl #16
  960748:	d2800482 	mov	x2, #0x24                  	// #36
  96074c:	d2814801 	mov	x1, #0xa40                 	// #2624
  960750:	b9400080 	ldr	w0, [x4]
  960754:	f2a60742 	movk	x2, #0x303a, lsl #16
  960758:	f2a60741 	movk	x1, #0x303a, lsl #16
  96075c:	32160000 	orr	w0, w0, #0x400
  960760:	b9000080 	str	w0, [x4]
  960764:	b9400060 	ldr	w0, [x3]
  960768:	32150000 	orr	w0, w0, #0x800
  96076c:	b9000060 	str	w0, [x3]
  960770:	b9400040 	ldr	w0, [x2]
  960774:	121d7800 	and	w0, w0, #0xfffffffb
  960778:	321d0000 	orr	w0, w0, #0x8
  96077c:	b9000040 	str	w0, [x2]
  960780:	b9400020 	ldr	w0, [x1]
  960784:	32000000 	orr	w0, w0, #0x1
  960788:	b9000020 	str	w0, [x1]
  96078c:	d65f03c0 	ret
  960790:	d2801683 	mov	x3, #0xb4                  	// #180
  960794:	d2801702 	mov	x2, #0xb8                  	// #184
  960798:	f2a60743 	movk	x3, #0x303a, lsl #16
  96079c:	f2a60742 	movk	x2, #0x303a, lsl #16
  9607a0:	d2800484 	mov	x4, #0x24                  	// #36
  9607a4:	d2814801 	mov	x1, #0xa40                 	// #2624
  9607a8:	b9400060 	ldr	w0, [x3]
  9607ac:	f2a60744 	movk	x4, #0x303a, lsl #16
  9607b0:	f2a60741 	movk	x1, #0x303a, lsl #16
  9607b4:	320183e5 	mov	w5, #0x80008000            	// #-2147450880
  9607b8:	12157800 	and	w0, w0, #0xfffffbff
  9607bc:	b9000060 	str	w0, [x3]
  9607c0:	b9400040 	ldr	w0, [x2]
  9607c4:	12147800 	and	w0, w0, #0xfffff7ff
  9607c8:	b9000040 	str	w0, [x2]
  9607cc:	b9000085 	str	w5, [x4]
  9607d0:	b9400020 	ldr	w0, [x1]
  9607d4:	121f7800 	and	w0, w0, #0xfffffffe
  9607d8:	b9000020 	str	w0, [x1]
  9607dc:	d65f03c0 	ret

00000000009607e0 <imx_set_sys_lpm>:
  9607e0:	d2800283 	mov	x3, #0x14                  	// #20
  9607e4:	72001c21 	ands	w1, w1, #0xff
  9607e8:	f2a60743 	movk	x3, #0x303a, lsl #16
  9607ec:	b9400062 	ldr	w2, [x3]
  9607f0:	540001c0 	b.eq	960828 <imx_set_sys_lpm+0x48>  // b.none
  9607f4:	120e7842 	and	w2, w2, #0xfffdffff
  9607f8:	32010c42 	orr	w2, w2, #0x80000007
  9607fc:	b9000062 	str	w2, [x3]
  960800:	d2800b02 	mov	x2, #0x58                  	// #88
  960804:	f2a60682 	movk	x2, #0x3034, lsl #16
  960808:	b9400042 	ldr	w2, [x2]
  96080c:	360000c2 	tbz	w2, #0, 960824 <imx_set_sys_lpm+0x44>
  960810:	d2800103 	mov	x3, #0x8                   	// #8
  960814:	f2a60743 	movk	x3, #0x303a, lsl #16
  960818:	b9400062 	ldr	w2, [x3]
  96081c:	32010042 	orr	w2, w2, #0x80000000
  960820:	b9000062 	str	w2, [x3]
  960824:	17ffff85 	b	960638 <imx_set_sys_wakeup>
  960828:	121d6c42 	and	w2, w2, #0x7ffffff8
  96082c:	320f0042 	orr	w2, w2, #0x20000
  960830:	b9000062 	str	w2, [x3]
  960834:	17fffff3 	b	960800 <imx_set_sys_lpm+0x20>

0000000000960838 <imx_set_rbc_count>:
  960838:	d2800281 	mov	x1, #0x14                  	// #20
  96083c:	52a90002 	mov	w2, #0x48000000            	// #1207959552
  960840:	f2a60741 	movk	x1, #0x303a, lsl #16
  960844:	b9400020 	ldr	w0, [x1]
  960848:	2a020000 	orr	w0, w0, w2
  96084c:	b9000020 	str	w0, [x1]
  960850:	d65f03c0 	ret
  960854:	00000000 	.inst	0x00000000 ; undefined

0000000000960858 <imx_clear_rbc_count>:
  960858:	d2800281 	mov	x1, #0x14                  	// #20
  96085c:	f2a60741 	movk	x1, #0x303a, lsl #16
  960860:	b9400020 	ldr	w0, [x1]
  960864:	12016000 	and	w0, w0, #0x80ffffff
  960868:	b9000020 	str	w0, [x1]
  96086c:	d65f03c0 	ret

0000000000960870 <imx_anamix_override>:
  960870:	f0000041 	adrp	x1, 96b000 <__RO_END__>
  960874:	91000021 	add	x1, x1, #0x0
  960878:	12001c00 	and	w0, w0, #0xff
  96087c:	91014025 	add	x5, x1, #0x50
  960880:	52a606c3 	mov	w3, #0x30360000            	// #808845312
  960884:	1400000b 	b	9608b0 <imx_anamix_override+0x40>
  960888:	321c0084 	orr	w4, w4, #0x10
  96088c:	b9000044 	str	w4, [x2]
  960890:	29401822 	ldp	w2, w6, [x1]
  960894:	91002021 	add	x1, x1, #0x8
  960898:	eb0100bf 	cmp	x5, x1
  96089c:	0b030042 	add	w2, w2, w3
  9608a0:	b9400044 	ldr	w4, [x2]
  9608a4:	2a060084 	orr	w4, w4, w6
  9608a8:	b9000044 	str	w4, [x2]
  9608ac:	540001e0 	b.eq	9608e8 <imx_anamix_override+0x78>  // b.none
  9608b0:	b9400022 	ldr	w2, [x1]
  9608b4:	0b030042 	add	w2, w2, w3
  9608b8:	b9400044 	ldr	w4, [x2]
  9608bc:	35fffe60 	cbnz	w0, 960888 <imx_anamix_override+0x18>
  9608c0:	121b7884 	and	w4, w4, #0xffffffef
  9608c4:	b9000044 	str	w4, [x2]
  9608c8:	29401022 	ldp	w2, w4, [x1]
  9608cc:	91002021 	add	x1, x1, #0x8
  9608d0:	eb0100bf 	cmp	x5, x1
  9608d4:	0b030042 	add	w2, w2, w3
  9608d8:	b9400046 	ldr	w6, [x2]
  9608dc:	0a2400c4 	bic	w4, w6, w4
  9608e0:	b9000044 	str	w4, [x2]
  9608e4:	54fffe61 	b.ne	9608b0 <imx_anamix_override+0x40>  // b.any
  9608e8:	d65f03c0 	ret
  9608ec:	00000000 	.inst	0x00000000 ; undefined

00000000009608f0 <imx_gpc_handler>:
  9608f0:	f1000c3f 	cmp	x1, #0x3
  9608f4:	54000141 	b.ne	96091c <imx_gpc_handler+0x2c>  // b.any
  9608f8:	f100007f 	cmp	x3, #0x0
  9608fc:	a9bf7bfd 	stp	x29, x30, [sp, #-16]!
  960900:	2a0203e0 	mov	w0, w2
  960904:	910003fd 	mov	x29, sp
  960908:	1a9f07e1 	cset	w1, ne  // ne = any
  96090c:	940002e5 	bl	9614a0 <imx_gpc_pm_domain_enable>
  960910:	52800000 	mov	w0, #0x0                   	// #0
  960914:	a8c17bfd 	ldp	x29, x30, [sp], #16
  960918:	d65f03c0 	ret
  96091c:	12800000 	mov	w0, #0xffffffff            	// #-1
  960920:	d65f03c0 	ret
  960924:	00000000 	.inst	0x00000000 ; undefined

0000000000960928 <imx_src_handler>:
  960928:	f100043f 	cmp	x1, #0x1
  96092c:	54000700 	b.eq	960a0c <imx_src_handler+0xe4>  // b.none
  960930:	f100083f 	cmp	x1, #0x2
  960934:	54000160 	b.eq	960960 <imx_src_handler+0x38>  // b.none
  960938:	12800000 	mov	w0, #0xffffffff            	// #-1
  96093c:	b4000041 	cbz	x1, 960944 <imx_src_handler+0x1c>
  960940:	d65f03c0 	ret
  960944:	d2800b02 	mov	x2, #0x58                  	// #88
  960948:	52800000 	mov	w0, #0x0                   	// #0
  96094c:	f2a60682 	movk	x2, #0x3034, lsl #16
  960950:	b9400041 	ldr	w1, [x2]
  960954:	121f7821 	and	w1, w1, #0xfffffffe
  960958:	b9000041 	str	w1, [x2]
  96095c:	d65f03c0 	ret
  960960:	d2802282 	mov	x2, #0x114                 	// #276
  960964:	f2a60742 	movk	x2, #0x303a, lsl #16
  960968:	b9400040 	ldr	w0, [x2]
  96096c:	7208041f 	tst	w0, #0x3000000
  960970:	540005a0 	b.eq	960a24 <imx_src_handler+0xfc>  // b.none
  960974:	d2800005 	mov	x5, #0x0                   	// #0
  960978:	d2800b03 	mov	x3, #0x58                  	// #88
  96097c:	d2800581 	mov	x1, #0x2c                  	// #44
  960980:	f2a60683 	movk	x3, #0x3034, lsl #16
  960984:	f2a60741 	movk	x1, #0x303a, lsl #16
  960988:	d2800182 	mov	x2, #0xc                   	// #12
  96098c:	b9400060 	ldr	w0, [x3]
  960990:	f2a60722 	movk	x2, #0x3039, lsl #16
  960994:	32000000 	orr	w0, w0, #0x1
  960998:	b9000060 	str	w0, [x3]
  96099c:	b9400020 	ldr	w0, [x1]
  9609a0:	32000000 	orr	w0, w0, #0x1
  9609a4:	b9000020 	str	w0, [x1]
  9609a8:	b9400040 	ldr	w0, [x2]
  9609ac:	321f0800 	orr	w0, w0, #0xe
  9609b0:	b9000040 	str	w0, [x2]
  9609b4:	d53be001 	mrs	x1, cntfrq_el0
  9609b8:	d53be020 	mrs	x0, cntpct_el0
  9609bc:	d284e206 	mov	x6, #0x2710                	// #10000
  9609c0:	d2869b63 	mov	x3, #0x34db                	// #13531
  9609c4:	f2baf6c3 	movk	x3, #0xd7b6, lsl #16
  9609c8:	9b067c21 	mul	x1, x1, x6
  9609cc:	f2dbd043 	movk	x3, #0xde82, lsl #32
  9609d0:	f2e86363 	movk	x3, #0x431b, lsl #48
  9609d4:	9bc37c21 	umulh	x1, x1, x3
  9609d8:	8b414801 	add	x1, x0, x1, lsr #18
  9609dc:	14000004 	b	9609ec <imx_src_handler+0xc4>
  9609e0:	d53be020 	mrs	x0, cntpct_el0
  9609e4:	eb00003f 	cmp	x1, x0
  9609e8:	540004a3 	b.cc	960a7c <imx_src_handler+0x154>  // b.lo, b.ul, b.last
  9609ec:	b9400040 	ldr	w0, [x2]
  9609f0:	12000c00 	and	w0, w0, #0xf
  9609f4:	7100201f 	cmp	w0, #0x8
  9609f8:	54ffff41 	b.ne	9609e0 <imx_src_handler+0xb8>  // b.any
  9609fc:	d2800001 	mov	x1, #0x0                   	// #0
  960a00:	52800000 	mov	w0, #0x0                   	// #0
  960a04:	a9008485 	stp	x5, x1, [x4, #8]
  960a08:	d65f03c0 	ret
  960a0c:	d2800b00 	mov	x0, #0x58                  	// #88
  960a10:	f2a60680 	movk	x0, #0x3034, lsl #16
  960a14:	b9400000 	ldr	w0, [x0]
  960a18:	2a2003e0 	mvn	w0, w0
  960a1c:	12000000 	and	w0, w0, #0x1
  960a20:	d65f03c0 	ret
  960a24:	d2800581 	mov	x1, #0x2c                  	// #44
  960a28:	f2a60741 	movk	x1, #0x303a, lsl #16
  960a2c:	b9400020 	ldr	w0, [x1]
  960a30:	121f7800 	and	w0, w0, #0xfffffffe
  960a34:	b9000020 	str	w0, [x1]
  960a38:	d53be001 	mrs	x1, cntfrq_el0
  960a3c:	d53be020 	mrs	x0, cntpct_el0
  960a40:	d284e205 	mov	x5, #0x2710                	// #10000
  960a44:	d2869b63 	mov	x3, #0x34db                	// #13531
  960a48:	f2baf6c3 	movk	x3, #0xd7b6, lsl #16
  960a4c:	9b057c21 	mul	x1, x1, x5
  960a50:	f2dbd043 	movk	x3, #0xde82, lsl #32
  960a54:	f2e86363 	movk	x3, #0x431b, lsl #48
  960a58:	9bc37c21 	umulh	x1, x1, x3
  960a5c:	8b414801 	add	x1, x0, x1, lsr #18
  960a60:	14000004 	b	960a70 <imx_src_handler+0x148>
  960a64:	d53be020 	mrs	x0, cntpct_el0
  960a68:	eb00003f 	cmp	x1, x0
  960a6c:	540000c3 	b.cc	960a84 <imx_src_handler+0x15c>  // b.lo, b.ul, b.last
  960a70:	b9400040 	ldr	w0, [x2]
  960a74:	370fff80 	tbnz	w0, #1, 960a64 <imx_src_handler+0x13c>
  960a78:	17ffffbf 	b	960974 <imx_src_handler+0x4c>
  960a7c:	92800761 	mov	x1, #0xffffffffffffffc4    	// #-60
  960a80:	17ffffe0 	b	960a00 <imx_src_handler+0xd8>
  960a84:	92800765 	mov	x5, #0xffffffffffffffc4    	// #-60
  960a88:	17ffffbc 	b	960978 <imx_src_handler+0x50>
  960a8c:	00000000 	.inst	0x00000000 ; undefined

0000000000960a90 <imx_hab_handler>:
  960a90:	aa0103e5 	mov	x5, x1
  960a94:	f1000c3f 	cmp	x1, #0x3
  960a98:	aa0203e0 	mov	x0, x2
  960a9c:	aa0303e1 	mov	x1, x3
  960aa0:	54000640 	b.eq	960b68 <imx_hab_handler+0xd8>  // b.none
  960aa4:	a9bf7bfd 	stp	x29, x30, [sp, #-16]!
  960aa8:	910003fd 	mov	x29, sp
  960aac:	54000148 	b.hi	960ad4 <imx_hab_handler+0x44>  // b.pmore
  960ab0:	f10004bf 	cmp	x5, #0x1
  960ab4:	540006a0 	b.eq	960b88 <imx_hab_handler+0xf8>  // b.none
  960ab8:	f10008bf 	cmp	x5, #0x2
  960abc:	54000201 	b.ne	960afc <imx_hab_handler+0x6c>  // b.any
  960ac0:	a8c17bfd 	ldp	x29, x30, [sp], #16
  960ac4:	d2812200 	mov	x0, #0x910                 	// #2320
  960ac8:	b9400000 	ldr	w0, [x0]
  960acc:	aa0003f0 	mov	x16, x0
  960ad0:	d61f0200 	br	x16
  960ad4:	f10014bf 	cmp	x5, #0x5
  960ad8:	540003c0 	b.eq	960b50 <imx_hab_handler+0xc0>  // b.none
  960adc:	f10018bf 	cmp	x5, #0x6
  960ae0:	54000241 	b.ne	960b28 <imx_hab_handler+0x98>  // b.any
  960ae4:	a8c17bfd 	ldp	x29, x30, [sp], #16
  960ae8:	d2812303 	mov	x3, #0x918                 	// #2328
  960aec:	aa0403e2 	mov	x2, x4
  960af0:	b9400063 	ldr	w3, [x3]
  960af4:	aa0303f0 	mov	x16, x3
  960af8:	d61f0200 	br	x16
  960afc:	b5000245 	cbnz	x5, 960b44 <imx_hab_handler+0xb4>
  960b00:	d2812405 	mov	x5, #0x920                 	// #2336
  960b04:	aa0403e3 	mov	x3, x4
  960b08:	aa0103e2 	mov	x2, x1
  960b0c:	d2800004 	mov	x4, #0x0                   	// #0
  960b10:	b94000a5 	ldr	w5, [x5]
  960b14:	aa0003e1 	mov	x1, x0
  960b18:	52800040 	mov	w0, #0x2                   	// #2
  960b1c:	d63f00a0 	blr	x5
  960b20:	a8c17bfd 	ldp	x29, x30, [sp], #16
  960b24:	d65f03c0 	ret
  960b28:	f10010bf 	cmp	x5, #0x4
  960b2c:	540000c1 	b.ne	960b44 <imx_hab_handler+0xb4>  // b.any
  960b30:	a8c17bfd 	ldp	x29, x30, [sp], #16
  960b34:	d2812902 	mov	x2, #0x948                 	// #2376
  960b38:	b9400042 	ldr	w2, [x2]
  960b3c:	aa0203f0 	mov	x16, x2
  960b40:	d61f0200 	br	x16
  960b44:	12800000 	mov	w0, #0xffffffff            	// #-1
  960b48:	a8c17bfd 	ldp	x29, x30, [sp], #16
  960b4c:	d65f03c0 	ret
  960b50:	d2812a00 	mov	x0, #0x950                 	// #2384
  960b54:	b9400000 	ldr	w0, [x0]
  960b58:	d63f0000 	blr	x0
  960b5c:	52800000 	mov	w0, #0x0                   	// #0
  960b60:	a8c17bfd 	ldp	x29, x30, [sp], #16
  960b64:	d65f03c0 	ret
  960b68:	d2812805 	mov	x5, #0x940                 	// #2368
  960b6c:	aa0403e3 	mov	x3, x4
  960b70:	aa0103e2 	mov	x2, x1
  960b74:	2a0003e1 	mov	w1, w0
  960b78:	b94000a4 	ldr	w4, [x5]
  960b7c:	52800660 	mov	w0, #0x33                  	// #51
  960b80:	aa0403f0 	mov	x16, x4
  960b84:	d61f0200 	br	x16
  960b88:	a8c17bfd 	ldp	x29, x30, [sp], #16
  960b8c:	d2812100 	mov	x0, #0x908                 	// #2312
  960b90:	b9400000 	ldr	w0, [x0]
  960b94:	aa0003f0 	mov	x16, x0
  960b98:	d61f0200 	br	x16
  960b9c:	00000000 	.inst	0x00000000 ; undefined

0000000000960ba0 <imx_aipstz_init>:
  960ba0:	f9400002 	ldr	x2, [x0]
  960ba4:	b4000222 	cbz	x2, 960be8 <imx_aipstz_init+0x48>
  960ba8:	928005e6 	mov	x6, #0xffffffffffffffd0    	// #-48
  960bac:	d503201f 	nop
  960bb0:	b9400801 	ldr	w1, [x0, #8]
  960bb4:	cb0200c3 	sub	x3, x6, x2
  960bb8:	b9000041 	str	w1, [x2]
  960bbc:	8b030003 	add	x3, x0, x3
  960bc0:	91015044 	add	x4, x2, #0x54
  960bc4:	91010041 	add	x1, x2, #0x40
  960bc8:	b9400c05 	ldr	w5, [x0, #12]
  960bcc:	b9000445 	str	w5, [x2, #4]
  960bd0:	b8616862 	ldr	w2, [x3, x1]
  960bd4:	b8004422 	str	w2, [x1], #4
  960bd8:	eb01009f 	cmp	x4, x1
  960bdc:	54ffffa1 	b.ne	960bd0 <imx_aipstz_init+0x30>  // b.any
  960be0:	f8428c02 	ldr	x2, [x0, #40]!
  960be4:	b5fffe62 	cbnz	x2, 960bb0 <imx_aipstz_init+0x10>
  960be8:	d65f03c0 	ret
  960bec:	00000000 	.inst	0x00000000 ; undefined

0000000000960bf0 <imx_rdc_init>:
  960bf0:	b9400001 	ldr	w1, [x0]
  960bf4:	34000421 	cbz	w1, 960c78 <imx_rdc_init+0x88>
  960bf8:	52808007 	mov	w7, #0x400                 	// #1024
  960bfc:	52810006 	mov	w6, #0x800                 	// #2048
  960c00:	52810085 	mov	w5, #0x804                 	// #2052
  960c04:	52810104 	mov	w4, #0x808                 	// #2056
  960c08:	52804003 	mov	w3, #0x200                 	// #512
  960c0c:	72a607a7 	movk	w7, #0x303d, lsl #16
  960c10:	72a607a6 	movk	w6, #0x303d, lsl #16
  960c14:	72a607a5 	movk	w5, #0x303d, lsl #16
  960c18:	72a607a4 	movk	w4, #0x303d, lsl #16
  960c1c:	72a607a3 	movk	w3, #0x303d, lsl #16
  960c20:	14000005 	b	960c34 <imx_rdc_init+0x44>
  960c24:	7100043f 	cmp	w1, #0x1
  960c28:	54000320 	b.eq	960c8c <imx_rdc_init+0x9c>  // b.none
  960c2c:	b8414c01 	ldr	w1, [x0, #20]!
  960c30:	34000241 	cbz	w1, 960c78 <imx_rdc_init+0x88>
  960c34:	7100083f 	cmp	w1, #0x2
  960c38:	54000220 	b.eq	960c7c <imx_rdc_init+0x8c>  // b.none
  960c3c:	71000c3f 	cmp	w1, #0x3
  960c40:	54ffff21 	b.ne	960c24 <imx_rdc_init+0x34>  // b.any
  960c44:	29408801 	ldp	w1, w2, [x0, #4]
  960c48:	0b0110c1 	add	w1, w6, w1, lsl #4
  960c4c:	b9000022 	str	w2, [x1]
  960c50:	b9400401 	ldr	w1, [x0, #4]
  960c54:	b9400c02 	ldr	w2, [x0, #12]
  960c58:	0b0110a1 	add	w1, w5, w1, lsl #4
  960c5c:	b9000022 	str	w2, [x1]
  960c60:	b9400401 	ldr	w1, [x0, #4]
  960c64:	b9401002 	ldr	w2, [x0, #16]
  960c68:	0b011081 	add	w1, w4, w1, lsl #4
  960c6c:	b9000022 	str	w2, [x1]
  960c70:	b8414c01 	ldr	w1, [x0, #20]!
  960c74:	35fffe01 	cbnz	w1, 960c34 <imx_rdc_init+0x44>
  960c78:	d65f03c0 	ret
  960c7c:	29408801 	ldp	w1, w2, [x0, #4]
  960c80:	0b0108e1 	add	w1, w7, w1, lsl #2
  960c84:	b9000022 	str	w2, [x1]
  960c88:	17ffffe9 	b	960c2c <imx_rdc_init+0x3c>
  960c8c:	29408801 	ldp	w1, w2, [x0, #4]
  960c90:	0b010861 	add	w1, w3, w1, lsl #2
  960c94:	b9000022 	str	w2, [x1]
  960c98:	17ffffe5 	b	960c2c <imx_rdc_init+0x3c>
  960c9c:	00000000 	.inst	0x00000000 ; undefined

0000000000960ca0 <imx8m_caam_init>:
  960ca0:	d2837c80 	mov	x0, #0x1be4                	// #7140
  960ca4:	52800063 	mov	w3, #0x3                   	// #3
  960ca8:	f2a61200 	movk	x0, #0x3090, lsl #16
  960cac:	d2800202 	mov	x2, #0x10                  	// #16
  960cb0:	f2a61202 	movk	x2, #0x3090, lsl #16
  960cb4:	52804061 	mov	w1, #0x203                 	// #515
  960cb8:	b9000003 	str	w3, [x0]
  960cbc:	d2800303 	mov	x3, #0x18                  	// #24
  960cc0:	f2a61203 	movk	x3, #0x3090, lsl #16
  960cc4:	d2800404 	mov	x4, #0x20                  	// #32
  960cc8:	b9000001 	str	w1, [x0]
  960ccc:	f2a61204 	movk	x4, #0x3090, lsl #16
  960cd0:	52800021 	mov	w1, #0x1                   	// #1
  960cd4:	b9000041 	str	w1, [x2]
  960cd8:	d2834082 	mov	x2, #0x1a04                	// #6660
  960cdc:	b9000061 	str	w1, [x3]
  960ce0:	f2a61202 	movk	x2, #0x3090, lsl #16
  960ce4:	d2834103 	mov	x3, #0x1a08                	// #6664
  960ce8:	f2a61203 	movk	x3, #0x3090, lsl #16
  960cec:	b9000081 	str	w1, [x4]
  960cf0:	d2834184 	mov	x4, #0x1a0c                	// #6668
  960cf4:	52801fe5 	mov	w5, #0xff                  	// #255
  960cf8:	f2a61204 	movk	x4, #0x3090, lsl #16
  960cfc:	b9000045 	str	w5, [x2]
  960d00:	12800002 	mov	w2, #0xffffffff            	// #-1
  960d04:	b9000062 	str	w2, [x3]
  960d08:	b9000082 	str	w2, [x4]
  960d0c:	320083e3 	mov	w3, #0x10001               	// #65537
  960d10:	b9000001 	str	w1, [x0]
  960d14:	b9000003 	str	w3, [x0]
  960d18:	d65f03c0 	ret
  960d1c:	00000000 	.inst	0x00000000 ; undefined

0000000000960d20 <imx_csu_init>:
  960d20:	b9400001 	ldr	w1, [x0]
  960d24:	340007c1 	cbz	w1, 960e1c <imx_csu_init+0xfc>
  960d28:	d2804305 	mov	x5, #0x218                 	// #536
  960d2c:	52806b08 	mov	w8, #0x358                 	// #856
  960d30:	52804006 	mov	w6, #0x200                 	// #512
  960d34:	f2a607c5 	movk	x5, #0x303e, lsl #16
  960d38:	52800024 	mov	w4, #0x1                   	// #1
  960d3c:	72a607c8 	movk	w8, #0x303e, lsl #16
  960d40:	52a607c7 	mov	w7, #0x303e0000            	// #809369600
  960d44:	52801fe9 	mov	w9, #0xff                  	// #255
  960d48:	72a607c6 	movk	w6, #0x303e, lsl #16
  960d4c:	14000019 	b	960db0 <imx_csu_init+0x90>
  960d50:	7100083f 	cmp	w1, #0x2
  960d54:	540002a1 	b.ne	960da8 <imx_csu_init+0x88>  // b.any
  960d58:	79400802 	ldrh	w2, [x0, #4]
  960d5c:	53047c41 	lsr	w1, w2, #4
  960d60:	531f0c42 	ubfiz	w2, w2, #1, #4
  960d64:	11000443 	add	w3, w2, #0x1
  960d68:	0b0108c1 	add	w1, w6, w1, lsl #2
  960d6c:	1ac32083 	lsl	w3, w4, w3
  960d70:	b940002a 	ldr	w10, [x1]
  960d74:	6a0a007f 	tst	w3, w10
  960d78:	54000181 	b.ne	960da8 <imx_csu_init+0x88>  // b.any
  960d7c:	39401803 	ldrb	w3, [x0, #6]
  960d80:	1ac2208a 	lsl	w10, w4, w2
  960d84:	39401c0b 	ldrb	w11, [x0, #7]
  960d88:	b940002c 	ldr	w12, [x1]
  960d8c:	531f0063 	ubfiz	w3, w3, #1, #1
  960d90:	d341056b 	ubfx	x11, x11, #1, #1
  960d94:	0a2a018a 	bic	w10, w12, w10
  960d98:	2a0b0063 	orr	w3, w3, w11
  960d9c:	1ac22062 	lsl	w2, w3, w2
  960da0:	2a0a0042 	orr	w2, w2, w10
  960da4:	b9000022 	str	w2, [x1]
  960da8:	b8408c01 	ldr	w1, [x0, #8]!
  960dac:	34000381 	cbz	w1, 960e1c <imx_csu_init+0xfc>
  960db0:	71000c3f 	cmp	w1, #0x3
  960db4:	540004e0 	b.eq	960e50 <imx_csu_init+0x130>  // b.none
  960db8:	54000348 	b.hi	960e20 <imx_csu_init+0x100>  // b.pmore
  960dbc:	7100043f 	cmp	w1, #0x1
  960dc0:	54fffc81 	b.ne	960d50 <imx_csu_init+0x30>  // b.any
  960dc4:	79400803 	ldrh	w3, [x0, #4]
  960dc8:	53017c62 	lsr	w2, w3, #1
  960dcc:	531c0063 	ubfiz	w3, w3, #4, #1
  960dd0:	1100206a 	add	w10, w3, #0x8
  960dd4:	0b0208e2 	add	w2, w7, w2, lsl #2
  960dd8:	1aca2021 	lsl	w1, w1, w10
  960ddc:	b940004a 	ldr	w10, [x2]
  960de0:	6a0a003f 	tst	w1, w10
  960de4:	54fffe21 	b.ne	960da8 <imx_csu_init+0x88>  // b.any
  960de8:	39401801 	ldrb	w1, [x0, #6]
  960dec:	1ac3212a 	lsl	w10, w9, w3
  960df0:	79400c0b 	ldrh	w11, [x0, #6]
  960df4:	b940004c 	ldr	w12, [x2]
  960df8:	53180021 	ubfiz	w1, w1, #8, #1
  960dfc:	d341216b 	ubfx	x11, x11, #1, #8
  960e00:	0a2a018a 	bic	w10, w12, w10
  960e04:	2a0b0021 	orr	w1, w1, w11
  960e08:	1ac32023 	lsl	w3, w1, w3
  960e0c:	2a0a0063 	orr	w3, w3, w10
  960e10:	b9000043 	str	w3, [x2]
  960e14:	b8408c01 	ldr	w1, [x0, #8]!
  960e18:	35fffcc1 	cbnz	w1, 960db0 <imx_csu_init+0x90>
  960e1c:	d65f03c0 	ret
  960e20:	7100103f 	cmp	w1, #0x4
  960e24:	54fffc21 	b.ne	960da8 <imx_csu_init+0x88>  // b.any
  960e28:	79400802 	ldrh	w2, [x0, #4]
  960e2c:	53047c41 	lsr	w1, w2, #4
  960e30:	531f0c42 	ubfiz	w2, w2, #1, #4
  960e34:	11000443 	add	w3, w2, #0x1
  960e38:	0b010901 	add	w1, w8, w1, lsl #2
  960e3c:	1ac32083 	lsl	w3, w4, w3
  960e40:	b940002a 	ldr	w10, [x1]
  960e44:	6a0a007f 	tst	w3, w10
  960e48:	54fffb01 	b.ne	960da8 <imx_csu_init+0x88>  // b.any
  960e4c:	17ffffcc 	b	960d7c <imx_csu_init+0x5c>
  960e50:	79400801 	ldrh	w1, [x0, #4]
  960e54:	b94000a3 	ldr	w3, [x5]
  960e58:	531f0c22 	ubfiz	w2, w1, #1, #4
  960e5c:	11000441 	add	w1, w2, #0x1
  960e60:	1ac12081 	lsl	w1, w4, w1
  960e64:	6a03003f 	tst	w1, w3
  960e68:	54fffa01 	b.ne	960da8 <imx_csu_init+0x88>  // b.any
  960e6c:	39401801 	ldrb	w1, [x0, #6]
  960e70:	1ac22083 	lsl	w3, w4, w2
  960e74:	39401c0a 	ldrb	w10, [x0, #7]
  960e78:	b94000ab 	ldr	w11, [x5]
  960e7c:	531f0021 	ubfiz	w1, w1, #1, #1
  960e80:	d341054a 	ubfx	x10, x10, #1, #1
  960e84:	0a230163 	bic	w3, w11, w3
  960e88:	2a0a0021 	orr	w1, w1, w10
  960e8c:	1ac22021 	lsl	w1, w1, w2
  960e90:	2a030021 	orr	w1, w1, w3
  960e94:	b90000a1 	str	w1, [x5]
  960e98:	17ffffc4 	b	960da8 <imx_csu_init+0x88>
  960e9c:	00000000 	.inst	0x00000000 ; undefined

0000000000960ea0 <imx_validate_ns_entrypoint>:
  960ea0:	12b7fc01 	mov	w1, #0x401fffff            	// #1075838975
  960ea4:	eb01001f 	cmp	x0, x1
  960ea8:	12800020 	mov	w0, #0xfffffffe            	// #-2
  960eac:	1a9f9000 	csel	w0, w0, wzr, ls  // ls = plast
  960eb0:	d65f03c0 	ret
  960eb4:	00000000 	.inst	0x00000000 ; undefined

0000000000960eb8 <imx_pwr_domain_on>:
  960eb8:	a9be7bfd 	stp	x29, x30, [sp, #-32]!
  960ebc:	d2a012c1 	mov	x1, #0x960000              	// #9830400
  960ec0:	910003fd 	mov	x29, sp
  960ec4:	f9000bf3 	str	x19, [sp, #16]
  960ec8:	12001c13 	and	w19, w0, #0xff
  960ecc:	2a1303e0 	mov	w0, w19
  960ed0:	97fffcc8 	bl	9601f0 <imx_set_cpu_secure_entry>
  960ed4:	2a1303e0 	mov	w0, w19
  960ed8:	97fffcf4 	bl	9602a8 <imx_set_cpu_pwr_on>
  960edc:	52800000 	mov	w0, #0x0                   	// #0
  960ee0:	f9400bf3 	ldr	x19, [sp, #16]
  960ee4:	a8c27bfd 	ldp	x29, x30, [sp], #32
  960ee8:	d65f03c0 	ret
  960eec:	00000000 	.inst	0x00000000 ; undefined

0000000000960ef0 <imx_pwr_domain_on_finish>:
  960ef0:	a9bf7bfd 	stp	x29, x30, [sp, #-16]!
  960ef4:	910003fd 	mov	x29, sp
  960ef8:	94000fd4 	bl	964e48 <plat_gic_pcpu_init>
  960efc:	a8c17bfd 	ldp	x29, x30, [sp], #16
  960f00:	14000fc6 	b	964e18 <plat_gic_cpuif_enable>
  960f04:	00000000 	.inst	0x00000000 ; undefined

0000000000960f08 <imx_pwr_domain_off>:
  960f08:	a9be7bfd 	stp	x29, x30, [sp, #-32]!
  960f0c:	910003fd 	mov	x29, sp
  960f10:	f9000bf3 	str	x19, [sp, #16]
  960f14:	d53800b3 	mrs	x19, mpidr_el1
  960f18:	94000fc6 	bl	964e30 <plat_gic_cpuif_disable>
  960f1c:	12001e60 	and	w0, w19, #0xff
  960f20:	f9400bf3 	ldr	x19, [sp, #16]
  960f24:	a8c27bfd 	ldp	x29, x30, [sp], #32
  960f28:	17fffcbe 	b	960220 <imx_set_cpu_pwr_off>
  960f2c:	00000000 	.inst	0x00000000 ; undefined

0000000000960f30 <imx_validate_power_state>:
  960f30:	d3586403 	ubfx	x3, x0, #24, #2
  960f34:	12003c04 	and	w4, w0, #0xffff
  960f38:	d3504002 	ubfx	x2, x0, #16, #1
  960f3c:	71000c7f 	cmp	w3, #0x3
  960f40:	540001c0 	b.eq	960f78 <imx_validate_power_state+0x48>  // b.none
  960f44:	35000082 	cbnz	w2, 960f54 <imx_validate_power_state+0x24>
  960f48:	52800040 	mov	w0, #0x2                   	// #2
  960f4c:	39000020 	strb	w0, [x1]
  960f50:	39000420 	strb	w0, [x1, #1]
  960f54:	7100cc9f 	cmp	w4, #0x33
  960f58:	52800000 	mov	w0, #0x0                   	// #0
  960f5c:	1a9f0042 	csel	w2, w2, wzr, eq  // eq = none
  960f60:	340000a2 	cbz	w2, 960f74 <imx_validate_power_state+0x44>
  960f64:	52800083 	mov	w3, #0x4                   	// #4
  960f68:	52800022 	mov	w2, #0x1                   	// #1
  960f6c:	39000023 	strb	w3, [x1]
  960f70:	39000422 	strb	w2, [x1, #1]
  960f74:	d65f03c0 	ret
  960f78:	12800020 	mov	w0, #0xfffffffe            	// #-2
  960f7c:	d65f03c0 	ret

0000000000960f80 <imx_cpu_standby>:
  960f80:	d5033f9f 	dsb	sy
  960f84:	d53e1100 	mrs	x0, scr_el3
  960f88:	b27e0000 	orr	x0, x0, #0x4
  960f8c:	d51e1100 	msr	scr_el3, x0
  960f90:	d5033fdf 	isb
  960f94:	d503207f 	wfi
  960f98:	d53e1100 	mrs	x0, scr_el3
  960f9c:	92407c00 	and	x0, x0, #0xffffffff
  960fa0:	927df800 	and	x0, x0, #0xfffffffffffffffb
  960fa4:	d51e1100 	msr	scr_el3, x0
  960fa8:	d5033fdf 	isb
  960fac:	d65f03c0 	ret

0000000000960fb0 <imx_domain_suspend>:
  960fb0:	a9be7bfd 	stp	x29, x30, [sp, #-32]!
  960fb4:	910003fd 	mov	x29, sp
  960fb8:	a90153f3 	stp	x19, x20, [sp, #16]
  960fbc:	aa0003f3 	mov	x19, x0
  960fc0:	d53800b4 	mrs	x20, mpidr_el1
  960fc4:	39400000 	ldrb	w0, [x0]
  960fc8:	12001e94 	and	w20, w20, #0xff
  960fcc:	51000c00 	sub	w0, w0, #0x3
  960fd0:	7100041f 	cmp	w0, #0x1
  960fd4:	540003a9 	b.ls	961048 <imx_domain_suspend+0x98>  // b.plast
  960fd8:	d5033f9f 	dsb	sy
  960fdc:	d53e1100 	mrs	x0, scr_el3
  960fe0:	b27e0000 	orr	x0, x0, #0x4
  960fe4:	d51e1100 	msr	scr_el3, x0
  960fe8:	d5033fdf 	isb
  960fec:	39400661 	ldrb	w1, [x19, #1]
  960ff0:	35000101 	cbnz	w1, 961010 <imx_domain_suspend+0x60>
  960ff4:	39400a60 	ldrb	w0, [x19, #2]
  960ff8:	51000c00 	sub	w0, w0, #0x3
  960ffc:	7100041f 	cmp	w0, #0x1
  961000:	54000149 	b.ls	961028 <imx_domain_suspend+0x78>  // b.plast
  961004:	a94153f3 	ldp	x19, x20, [sp, #16]
  961008:	a8c27bfd 	ldp	x29, x30, [sp], #32
  96100c:	d65f03c0 	ret
  961010:	2a1403e0 	mov	w0, w20
  961014:	97fffd27 	bl	9604b0 <imx_set_cluster_powerdown>
  961018:	39400a60 	ldrb	w0, [x19, #2]
  96101c:	51000c00 	sub	w0, w0, #0x3
  961020:	7100041f 	cmp	w0, #0x1
  961024:	54ffff08 	b.hi	961004 <imx_domain_suspend+0x54>  // b.pmore
  961028:	97fffc6a 	bl	9601d0 <imx_m4_lpa_active>
  96102c:	72001c1f 	tst	w0, #0xff
  961030:	540001c0 	b.eq	961068 <imx_domain_suspend+0xb8>  // b.none
  961034:	2a1403e0 	mov	w0, w20
  961038:	52800021 	mov	w1, #0x1                   	// #1
  96103c:	a94153f3 	ldp	x19, x20, [sp, #16]
  961040:	a8c27bfd 	ldp	x29, x30, [sp], #32
  961044:	17fffd7d 	b	960638 <imx_set_sys_wakeup>
  961048:	94000f7a 	bl	964e30 <plat_gic_cpuif_disable>
  96104c:	2a1403e0 	mov	w0, w20
  961050:	d2a012c1 	mov	x1, #0x960000              	// #9830400
  961054:	97fffc67 	bl	9601f0 <imx_set_cpu_secure_entry>
  961058:	2a1403e0 	mov	w0, w20
  96105c:	52800021 	mov	w1, #0x1                   	// #1
  961060:	97fffccc 	bl	960390 <imx_set_cpu_lpm>
  961064:	17ffffe2 	b	960fec <imx_domain_suspend+0x3c>
  961068:	2a1403e0 	mov	w0, w20
  96106c:	52800021 	mov	w1, #0x1                   	// #1
  961070:	97fffddc 	bl	9607e0 <imx_set_sys_lpm>
  961074:	94000757 	bl	962dd0 <dram_enter_retention>
  961078:	52800020 	mov	w0, #0x1                   	// #1
  96107c:	97fffdfd 	bl	960870 <imx_anamix_override>
  961080:	2a1403e0 	mov	w0, w20
  961084:	9400017f 	bl	961680 <imx_noc_wrapper_pre_suspend>
  961088:	17ffffeb 	b	961034 <imx_domain_suspend+0x84>
  96108c:	00000000 	.inst	0x00000000 ; undefined

0000000000961090 <imx_domain_suspend_finish>:
  961090:	a9be7bfd 	stp	x29, x30, [sp, #-32]!
  961094:	910003fd 	mov	x29, sp
  961098:	a90153f3 	stp	x19, x20, [sp, #16]
  96109c:	aa0003f3 	mov	x19, x0
  9610a0:	d53800b4 	mrs	x20, mpidr_el1
  9610a4:	39400800 	ldrb	w0, [x0, #2]
  9610a8:	12001e94 	and	w20, w20, #0xff
  9610ac:	51000c00 	sub	w0, w0, #0x3
  9610b0:	7100041f 	cmp	w0, #0x1
  9610b4:	540003a9 	b.ls	961128 <imx_domain_suspend_finish+0x98>  // b.plast
  9610b8:	39400660 	ldrb	w0, [x19, #1]
  9610bc:	350001a0 	cbnz	w0, 9610f0 <imx_domain_suspend_finish+0x60>
  9610c0:	39400260 	ldrb	w0, [x19]
  9610c4:	51000c00 	sub	w0, w0, #0x3
  9610c8:	7100041f 	cmp	w0, #0x1
  9610cc:	54000229 	b.ls	961110 <imx_domain_suspend_finish+0x80>  // b.plast
  9610d0:	d53e1100 	mrs	x0, scr_el3
  9610d4:	92407c00 	and	x0, x0, #0xffffffff
  9610d8:	927df800 	and	x0, x0, #0xfffffffffffffffb
  9610dc:	d51e1100 	msr	scr_el3, x0
  9610e0:	d5033fdf 	isb
  9610e4:	a94153f3 	ldp	x19, x20, [sp, #16]
  9610e8:	a8c27bfd 	ldp	x29, x30, [sp], #32
  9610ec:	d65f03c0 	ret
  9610f0:	97fffdda 	bl	960858 <imx_clear_rbc_count>
  9610f4:	2a1403e0 	mov	w0, w20
  9610f8:	52800001 	mov	w1, #0x0                   	// #0
  9610fc:	97fffced 	bl	9604b0 <imx_set_cluster_powerdown>
  961100:	39400260 	ldrb	w0, [x19]
  961104:	51000c00 	sub	w0, w0, #0x3
  961108:	7100041f 	cmp	w0, #0x1
  96110c:	54fffe28 	b.hi	9610d0 <imx_domain_suspend_finish+0x40>  // b.pmore
  961110:	2a1403e0 	mov	w0, w20
  961114:	52800001 	mov	w1, #0x0                   	// #0
  961118:	97fffc9e 	bl	960390 <imx_set_cpu_lpm>
  96111c:	a94153f3 	ldp	x19, x20, [sp, #16]
  961120:	a8c27bfd 	ldp	x29, x30, [sp], #32
  961124:	14000f3d 	b	964e18 <plat_gic_cpuif_enable>
  961128:	97fffc2a 	bl	9601d0 <imx_m4_lpa_active>
  96112c:	72001c1f 	tst	w0, #0xff
  961130:	540000a0 	b.eq	961144 <imx_domain_suspend_finish+0xb4>  // b.none
  961134:	2a1403e0 	mov	w0, w20
  961138:	52800001 	mov	w1, #0x0                   	// #0
  96113c:	97fffd3f 	bl	960638 <imx_set_sys_wakeup>
  961140:	17ffffde 	b	9610b8 <imx_domain_suspend_finish+0x28>
  961144:	2a1403e0 	mov	w0, w20
  961148:	94000178 	bl	961728 <imx_noc_wrapper_post_resume>
  96114c:	52800000 	mov	w0, #0x0                   	// #0
  961150:	97fffdc8 	bl	960870 <imx_anamix_override>
  961154:	94000787 	bl	962f70 <dram_exit_retention>
  961158:	2a1403e0 	mov	w0, w20
  96115c:	52800001 	mov	w1, #0x0                   	// #0
  961160:	97fffda0 	bl	9607e0 <imx_set_sys_lpm>
  961164:	17fffff4 	b	961134 <imx_domain_suspend_finish+0xa4>

0000000000961168 <imx_get_sys_suspend_power_state>:
  961168:	52800061 	mov	w1, #0x3                   	// #3
  96116c:	39000001 	strb	w1, [x0]
  961170:	39000401 	strb	w1, [x0, #1]
  961174:	39000801 	strb	w1, [x0, #2]
  961178:	d65f03c0 	ret
  96117c:	00000000 	.inst	0x00000000 ; undefined

0000000000961180 <imx_system_reset>:
  961180:	d2a60502 	mov	x2, #0x30280000            	// #807927808
  961184:	d2800041 	mov	x1, #0x2                   	// #2
  961188:	f2a60501 	movk	x1, #0x3028, lsl #16
  96118c:	528023a5 	mov	w5, #0x11d                 	// #285
  961190:	79400040 	ldrh	w0, [x2]
  961194:	528aaaa4 	mov	w4, #0x5555                	// #21845
  961198:	128aaaa3 	mov	w3, #0xffffaaaa            	// #-21846
  96119c:	121f0000 	and	w0, w0, #0x2
  9611a0:	2a050000 	orr	w0, w0, w5
  9611a4:	79000040 	strh	w0, [x2]
  9611a8:	79000024 	strh	w4, [x1]
  9611ac:	79000023 	strh	w3, [x1]
  9611b0:	14000000 	b	9611b0 <imx_system_reset+0x30>
  9611b4:	00000000 	.inst	0x00000000 ; undefined

00000000009611b8 <imx_system_off>:
  9611b8:	d2800700 	mov	x0, #0x38                  	// #56
  9611bc:	52800c21 	mov	w1, #0x61                  	// #97
  9611c0:	f2a606e0 	movk	x0, #0x3037, lsl #16
  9611c4:	b9000001 	str	w1, [x0]
  9611c8:	14000000 	b	9611c8 <imx_system_off+0x10>
  9611cc:	00000000 	.inst	0x00000000 ; undefined

00000000009611d0 <imx_pwr_domain_pwr_down_wfi>:
  9611d0:	39400400 	ldrb	w0, [x0, #1]
  9611d4:	51000c00 	sub	w0, w0, #0x3
  9611d8:	7100041f 	cmp	w0, #0x1
  9611dc:	54000089 	b.ls	9611ec <imx_pwr_domain_pwr_down_wfi+0x1c>  // b.plast
  9611e0:	d503207f 	wfi
  9611e4:	d503207f 	wfi
  9611e8:	17fffffe 	b	9611e0 <imx_pwr_domain_pwr_down_wfi+0x10>
  9611ec:	a9bf7bfd 	stp	x29, x30, [sp, #-16]!
  9611f0:	910003fd 	mov	x29, sp
  9611f4:	97fffd91 	bl	960838 <imx_set_rbc_count>
  9611f8:	528003c0 	mov	w0, #0x1e                  	// #30
  9611fc:	9400025d 	bl	961b70 <udelay>
  961200:	d503207f 	wfi
  961204:	d503207f 	wfi
  961208:	17fffffe 	b	961200 <imx_pwr_domain_pwr_down_wfi+0x30>
  96120c:	00000000 	.inst	0x00000000 ; undefined

0000000000961210 <bl31_early_platform_setup2>:
  961210:	a9be7bfd 	stp	x29, x30, [sp, #-32]!
  961214:	d2802001 	mov	x1, #0x100                 	// #256
  961218:	d2a607c0 	mov	x0, #0x303e0000            	// #809369600
  96121c:	910003fd 	mov	x29, sp
  961220:	32009fe2 	mov	w2, #0xff00ff              	// #16711935
  961224:	f2a607c1 	movk	x1, #0x303e, lsl #16
  961228:	f9000bf3 	str	x19, [sp, #16]
  96122c:	d503201f 	nop
  961230:	b8004402 	str	w2, [x0], #4
  961234:	eb01001f 	cmp	x0, x1
  961238:	54ffffc1 	b.ne	961230 <bl31_early_platform_setup2+0x20>  // b.any
  96123c:	90000040 	adrp	x0, 969000 <vprintf+0x100>
  961240:	91142000 	add	x0, x0, #0x508
  961244:	97fffe57 	bl	960ba0 <imx_aipstz_init>
  961248:	90000073 	adrp	x19, 96d000 <__STACKS_START__+0x1e40>
  96124c:	90000040 	adrp	x0, 969000 <vprintf+0x100>
  961250:	911d4000 	add	x0, x0, #0x750
  961254:	97fffe67 	bl	960bf0 <imx_rdc_init>
  961258:	9139c273 	add	x19, x19, #0xe70
  96125c:	90000040 	adrp	x0, 969000 <vprintf+0x100>
  961260:	91174000 	add	x0, x0, #0x5d0
  961264:	97fffeaf 	bl	960d20 <imx_csu_init>
  961268:	d2800580 	mov	x0, #0x2c                  	// #44
  96126c:	52801821 	mov	w1, #0xc1                  	// #193
  961270:	f2a60680 	movk	x0, #0x3034, lsl #16
  961274:	b9000001 	str	w1, [x0]
  961278:	97fffe8a 	bl	960ca0 <imx8m_caam_init>
  96127c:	aa1303e3 	mov	x3, x19
  961280:	52984002 	mov	w2, #0xc200                	// #49664
  961284:	72a00022 	movk	w2, #0x1, lsl #16
  961288:	5286c001 	mov	w1, #0x3600                	// #13824
  96128c:	72a02dc1 	movk	w1, #0x16e, lsl #16
  961290:	d2a61120 	mov	x0, #0x30890000            	// #814284800
  961294:	94001bee 	bl	96824c <console_imx_uart_register>
  961298:	aa1303e0 	mov	x0, x19
  96129c:	52800021 	mov	w1, #0x1                   	// #1
  9612a0:	94001b4e 	bl	967fd8 <console_set_scope>
  9612a4:	90000060 	adrp	x0, 96d000 <__STACKS_START__+0x1e40>
  9612a8:	91386000 	add	x0, x0, #0xe18
  9612ac:	d2a80401 	mov	x1, #0x40200000            	// #1075838976
  9612b0:	f9000401 	str	x1, [x0, #8]
  9612b4:	d5380403 	mrs	x3, id_aa64pfr0_el1
  9612b8:	90000061 	adrp	x1, 96d000 <__STACKS_START__+0x1e40>
  9612bc:	d2a86402 	mov	x2, #0x43200000            	// #1126170624
  9612c0:	d2802024 	mov	x4, #0x101                 	// #257
  9612c4:	d2800505 	mov	x5, #0x28                  	// #40
  9612c8:	f2a00b04 	movk	x4, #0x58, lsl #16
  9612cc:	f906e024 	str	x4, [x1, #3520]
  9612d0:	f2a60685 	movk	x5, #0x3034, lsl #16
  9612d4:	b900005f 	str	wzr, [x2]
  9612d8:	91370021 	add	x1, x1, #0xdc0
  9612dc:	f2780c7f 	tst	x3, #0xf00
  9612e0:	b94000a6 	ldr	w6, [x5]
  9612e4:	528078a5 	mov	w5, #0x3c5                 	// #965
  9612e8:	b9400404 	ldr	w4, [x0, #4]
  9612ec:	52807923 	mov	w3, #0x3c9                 	// #969
  9612f0:	d2a04007 	mov	x7, #0x2000000             	// #33554432
  9612f4:	1a851063 	csel	w3, w3, w5, ne  // ne = any
  9612f8:	32000084 	orr	w4, w4, #0x1
  9612fc:	d2b7c005 	mov	x5, #0xbe000000            	// #3187671040
  961300:	b9000404 	str	w4, [x0, #4]
  961304:	f9000425 	str	x5, [x1, #8]
  961308:	b9001003 	str	w3, [x0, #16]
  96130c:	b900103f 	str	wzr, [x1, #16]
  961310:	a9021c05 	stp	x5, x7, [x0, #32]
  961314:	f9001802 	str	x2, [x0, #48]
  961318:	f9001822 	str	x2, [x1, #48]
  96131c:	37000086 	tbnz	w6, #0, 96132c <bl31_early_platform_setup2+0x11c>
  961320:	f9400bf3 	ldr	x19, [sp, #16]
  961324:	a8c27bfd 	ldp	x29, x30, [sp], #32
  961328:	d65f03c0 	ret
  96132c:	d2a65f00 	mov	x0, #0x32f80000            	// #855113728
  961330:	940001f8 	bl	961b10 <tzc380_init>
  961334:	f9400bf3 	ldr	x19, [sp, #16]
  961338:	320427e2 	mov	w2, #0xf000003f            	// #-268435393
  96133c:	a8c27bfd 	ldp	x29, x30, [sp], #32
  961340:	d2800001 	mov	x1, #0x0                   	// #0
  961344:	52800000 	mov	w0, #0x0                   	// #0
  961348:	140001fe 	b	961b40 <tzc380_configure_region>
  96134c:	00000000 	.inst	0x00000000 ; undefined

0000000000961350 <bl31_plat_arch_setup>:
  961350:	a9bf7bfd 	stp	x29, x30, [sp, #-16]!
  961354:	d2a012c1 	mov	x1, #0x960000              	// #9830400
  961358:	52800143 	mov	w3, #0xa                   	// #10
  96135c:	910003fd 	mov	x29, sp
  961360:	aa0103e0 	mov	x0, x1
  961364:	d2a00042 	mov	x2, #0x20000               	// #131072
  961368:	94000296 	bl	961dc0 <mmap_add_region>
  96136c:	f0ffffe1 	adrp	x1, 960000 <bl31_entrypoint>
  961370:	d0000042 	adrp	x2, 96b000 <__RO_END__>
  961374:	91000021 	add	x1, x1, #0x0
  961378:	91000042 	add	x2, x2, #0x0
  96137c:	cb010042 	sub	x2, x2, x1
  961380:	aa0103e0 	mov	x0, x1
  961384:	52800043 	mov	w3, #0x2                   	// #2
  961388:	9400028e 	bl	961dc0 <mmap_add_region>
  96138c:	d00000c1 	adrp	x1, 97b000 <gpc_lock>
  961390:	f00000c2 	adrp	x2, 97c000 <__BL31_END__>
  961394:	91000021 	add	x1, x1, #0x0
  961398:	91000042 	add	x2, x2, #0x0
  96139c:	cb010042 	sub	x2, x2, x1
  9613a0:	aa0103e0 	mov	x0, x1
  9613a4:	52800103 	mov	w3, #0x8                   	// #8
  9613a8:	94000286 	bl	961dc0 <mmap_add_region>
  9613ac:	d2b7c001 	mov	x1, #0xbe000000            	// #3187671040
  9613b0:	52800143 	mov	w3, #0xa                   	// #10
  9613b4:	aa0103e0 	mov	x0, x1
  9613b8:	d2a04002 	mov	x2, #0x2000000             	// #33554432
  9613bc:	94000281 	bl	961dc0 <mmap_add_region>
  9613c0:	90000040 	adrp	x0, 969000 <vprintf+0x100>
  9613c4:	9117a000 	add	x0, x0, #0x5e8
  9613c8:	9400028e 	bl	961e00 <mmap_add>
  9613cc:	94000291 	bl	961e10 <init_xlat_tables>
  9613d0:	a8c17bfd 	ldp	x29, x30, [sp], #16
  9613d4:	52800000 	mov	w0, #0x0                   	// #0
  9613d8:	1400029c 	b	961e48 <enable_mmu_el3>
  9613dc:	00000000 	.inst	0x00000000 ; undefined

00000000009613e0 <bl31_platform_setup>:
  9613e0:	a9bf7bfd 	stp	x29, x30, [sp, #-16]!
  9613e4:	910003fd 	mov	x29, sp
  9613e8:	94000206 	bl	961c00 <generic_delay_timer_init>
  9613ec:	d2802481 	mov	x1, #0x124                 	// #292
  9613f0:	52800022 	mov	w2, #0x1                   	// #1
  9613f4:	f2a606c1 	movk	x1, #0x3036, lsl #16
  9613f8:	d2a00300 	mov	x0, #0x180000              	// #1572864
  9613fc:	b9000022 	str	w2, [x1]
  961400:	940004e0 	bl	962780 <dram_info_init>
  961404:	94000e69 	bl	964da8 <plat_gic_driver_init>
  961408:	94000e6c 	bl	964db8 <plat_gic_init>
  96140c:	940000f3 	bl	9617d8 <imx_gpc_init>
  961410:	d2800180 	mov	x0, #0xc                   	// #12
  961414:	f2a60720 	movk	x0, #0x3039, lsl #16
  961418:	b9400001 	ldr	w1, [x0]
  96141c:	321d0021 	orr	w1, w1, #0x8
  961420:	b9000001 	str	w1, [x0]
  961424:	b9400001 	ldr	w1, [x0]
  961428:	121f7821 	and	w1, w1, #0xfffffffe
  96142c:	b9000001 	str	w1, [x0]
  961430:	a8c17bfd 	ldp	x29, x30, [sp], #16
  961434:	d65f03c0 	ret

0000000000961438 <bl31_plat_get_next_image_ep_info>:
  961438:	7100041f 	cmp	w0, #0x1
  96143c:	540000c0 	b.eq	961454 <bl31_plat_get_next_image_ep_info+0x1c>  // b.none
  961440:	7100001f 	cmp	w0, #0x0
  961444:	90000060 	adrp	x0, 96d000 <__STACKS_START__+0x1e40>
  961448:	91370000 	add	x0, x0, #0xdc0
  96144c:	9a9f0000 	csel	x0, x0, xzr, eq  // eq = none
  961450:	d65f03c0 	ret
  961454:	90000060 	adrp	x0, 96d000 <__STACKS_START__+0x1e40>
  961458:	91386000 	add	x0, x0, #0xe18
  96145c:	d65f03c0 	ret

0000000000961460 <plat_get_syscnt_freq2>:
  961460:	52824000 	mov	w0, #0x1200                	// #4608
  961464:	72a00f40 	movk	w0, #0x7a, lsl #16
  961468:	d65f03c0 	ret
  96146c:	00000000 	.inst	0x00000000 ; undefined

0000000000961470 <plat_setup_psci_ops>:
  961470:	a9be7bfd 	stp	x29, x30, [sp, #-32]!
  961474:	910003fd 	mov	x29, sp
  961478:	f9000bf3 	str	x19, [sp, #16]
  96147c:	aa0103f3 	mov	x19, x1
  961480:	94001b69 	bl	968224 <imx_mailbox_init>
  961484:	90000041 	adrp	x1, 969000 <vprintf+0x100>
  961488:	911f8021 	add	x1, x1, #0x7e0
  96148c:	f9000261 	str	x1, [x19]
  961490:	52800000 	mov	w0, #0x0                   	// #0
  961494:	f9400bf3 	ldr	x19, [sp, #16]
  961498:	a8c27bfd 	ldp	x29, x30, [sp], #32
  96149c:	d65f03c0 	ret

00000000009614a0 <imx_gpc_pm_domain_enable>:
  9614a0:	90000063 	adrp	x3, 96d000 <__STACKS_START__+0x1e40>
  9614a4:	52800022 	mov	w2, #0x1                   	// #1
  9614a8:	72001c3f 	tst	w1, #0xff
  9614ac:	1ac02042 	lsl	w2, w2, w0
  9614b0:	b94ea061 	ldr	w1, [x3, #3744]
  9614b4:	540003a0 	b.eq	961528 <imx_gpc_pm_domain_enable+0x88>  // b.none
  9614b8:	2a010042 	orr	w2, w2, w1
  9614bc:	b90ea062 	str	w2, [x3, #3744]
  9614c0:	350009a0 	cbnz	w0, 9615f4 <imx_gpc_pm_domain_enable+0x154>
  9614c4:	d0000045 	adrp	x5, 96b000 <__RO_END__>
  9614c8:	910140a5 	add	x5, x5, #0x50
  9614cc:	d2800001 	mov	x1, #0x0                   	// #0
  9614d0:	8b010820 	add	x0, x1, x1, lsl #2
  9614d4:	8b0008a0 	add	x0, x5, x0, lsl #2
  9614d8:	39404402 	ldrb	w2, [x0, #17]
  9614dc:	350001e2 	cbnz	w2, 961518 <imx_gpc_pm_domain_enable+0x78>
  9614e0:	39404002 	ldrb	w2, [x0, #16]
  9614e4:	340001a2 	cbz	w2, 961518 <imx_gpc_pm_domain_enable+0x78>
  9614e8:	d2803f82 	mov	x2, #0x1fc                 	// #508
  9614ec:	b9400406 	ldr	w6, [x0, #4]
  9614f0:	f2a60742 	movk	x2, #0x303a, lsl #16
  9614f4:	aa0203e3 	mov	x3, x2
  9614f8:	b9400044 	ldr	w4, [x2]
  9614fc:	2a060084 	orr	w4, w4, w6
  961500:	b9000044 	str	w4, [x2]
  961504:	b9400802 	ldr	w2, [x0, #8]
  961508:	b9400060 	ldr	w0, [x3]
  96150c:	6a00005f 	tst	w2, w0
  961510:	54ffffc0 	b.eq	961508 <imx_gpc_pm_domain_enable+0x68>  // b.none
  961514:	d503201f 	nop
  961518:	8b010821 	add	x1, x1, x1, lsl #2
  96151c:	8b0108a1 	add	x1, x5, x1, lsl #2
  961520:	3900443f 	strb	wzr, [x1, #17]
  961524:	d65f03c0 	ret
  961528:	0a220022 	bic	w2, w1, w2
  96152c:	b90ea062 	str	w2, [x3, #3744]
  961530:	7100081f 	cmp	w0, #0x2
  961534:	54ffff80 	b.eq	961524 <imx_gpc_pm_domain_enable+0x84>  // b.none
  961538:	2a0003e1 	mov	w1, w0
  96153c:	d0000045 	adrp	x5, 96b000 <__RO_END__>
  961540:	8b204822 	add	x2, x1, w0, uxtw #2
  961544:	910140a5 	add	x5, x5, #0x50
  961548:	8b0208a2 	add	x2, x5, x2, lsl #2
  96154c:	39404443 	ldrb	w3, [x2, #17]
  961550:	350001e3 	cbnz	w3, 96158c <imx_gpc_pm_domain_enable+0xec>
  961554:	39404043 	ldrb	w3, [x2, #16]
  961558:	340001a3 	cbz	w3, 96158c <imx_gpc_pm_domain_enable+0xec>
  96155c:	d2803f83 	mov	x3, #0x1fc                 	// #508
  961560:	b9400446 	ldr	w6, [x2, #4]
  961564:	f2a60743 	movk	x3, #0x303a, lsl #16
  961568:	aa0303e4 	mov	x4, x3
  96156c:	b9400067 	ldr	w7, [x3]
  961570:	0a2600e6 	bic	w6, w7, w6
  961574:	b9000066 	str	w6, [x3]
  961578:	b9400843 	ldr	w3, [x2, #8]
  96157c:	d503201f 	nop
  961580:	b9400082 	ldr	w2, [x4]
  961584:	6a02007f 	tst	w3, w2
  961588:	54ffffc1 	b.ne	961580 <imx_gpc_pm_domain_enable+0xe0>  // b.any
  96158c:	34fffc60 	cbz	w0, 961518 <imx_gpc_pm_domain_enable+0x78>
  961590:	8b010820 	add	x0, x1, x1, lsl #2
  961594:	52a60746 	mov	w6, #0x303a0000            	// #809107456
  961598:	d2802084 	mov	x4, #0x104                 	// #260
  96159c:	d37ef400 	lsl	x0, x0, #2
  9615a0:	f2a60744 	movk	x4, #0x303a, lsl #16
  9615a4:	8b0000a2 	add	x2, x5, x0
  9615a8:	aa0403e3 	mov	x3, x4
  9615ac:	b86068a7 	ldr	w7, [x5, x0]
  9615b0:	b9400c42 	ldr	w2, [x2, #12]
  9615b4:	0b060042 	add	w2, w2, w6
  9615b8:	b9400046 	ldr	w6, [x2]
  9615bc:	320000c6 	orr	w6, w6, #0x1
  9615c0:	b9000046 	str	w6, [x2]
  9615c4:	b9400082 	ldr	w2, [x4]
  9615c8:	2a070042 	orr	w2, w2, w7
  9615cc:	b9000082 	str	w2, [x4]
  9615d0:	b86068a2 	ldr	w2, [x5, x0]
  9615d4:	d503201f 	nop
  9615d8:	b9400060 	ldr	w0, [x3]
  9615dc:	6a00005f 	tst	w2, w0
  9615e0:	54ffffc1 	b.ne	9615d8 <imx_gpc_pm_domain_enable+0x138>  // b.any
  9615e4:	8b010821 	add	x1, x1, x1, lsl #2
  9615e8:	8b0108a1 	add	x1, x5, x1, lsl #2
  9615ec:	3900443f 	strb	wzr, [x1, #17]
  9615f0:	17ffffcd 	b	961524 <imx_gpc_pm_domain_enable+0x84>
  9615f4:	2a0003e1 	mov	w1, w0
  9615f8:	d0000045 	adrp	x5, 96b000 <__RO_END__>
  9615fc:	8b204822 	add	x2, x1, w0, uxtw #2
  961600:	910140a5 	add	x5, x5, #0x50
  961604:	52a60747 	mov	w7, #0x303a0000            	// #809107456
  961608:	d2801f06 	mov	x6, #0xf8                  	// #248
  96160c:	d37ef442 	lsl	x2, x2, #2
  961610:	f2a60746 	movk	x6, #0x303a, lsl #16
  961614:	8b0200a3 	add	x3, x5, x2
  961618:	aa0603e4 	mov	x4, x6
  96161c:	b86268a8 	ldr	w8, [x5, x2]
  961620:	b9400c63 	ldr	w3, [x3, #12]
  961624:	0b070063 	add	w3, w3, w7
  961628:	b9400067 	ldr	w7, [x3]
  96162c:	121f78e7 	and	w7, w7, #0xfffffffe
  961630:	b9000067 	str	w7, [x3]
  961634:	b94000c3 	ldr	w3, [x6]
  961638:	2a080063 	orr	w3, w3, w8
  96163c:	b90000c3 	str	w3, [x6]
  961640:	b86268a3 	ldr	w3, [x5, x2]
  961644:	d503201f 	nop
  961648:	b9400082 	ldr	w2, [x4]
  96164c:	6a02007f 	tst	w3, w2
  961650:	54ffffc1 	b.ne	961648 <imx_gpc_pm_domain_enable+0x1a8>  // b.any
  961654:	7100241f 	cmp	w0, #0x9
  961658:	54fff3c1 	b.ne	9614d0 <imx_gpc_pm_domain_enable+0x30>  // b.any
  96165c:	d2900003 	mov	x3, #0x8000                	// #32768
  961660:	d2900082 	mov	x2, #0x8004                	// #32772
  961664:	f2a65c43 	movk	x3, #0x32e2, lsl #16
  961668:	f2a65c42 	movk	x2, #0x32e2, lsl #16
  96166c:	52802000 	mov	w0, #0x100                 	// #256
  961670:	b9000060 	str	w0, [x3]
  961674:	b9000040 	str	w0, [x2]
  961678:	17ffff96 	b	9614d0 <imx_gpc_pm_domain_enable+0x30>
  96167c:	00000000 	.inst	0x00000000 ; undefined

0000000000961680 <imx_noc_wrapper_pre_suspend>:
  961680:	a9be7bfd 	stp	x29, x30, [sp, #-32]!
  961684:	d2a60743 	mov	x3, #0x303a0000            	// #809107456
  961688:	d2800302 	mov	x2, #0x18                  	// #24
  96168c:	910003fd 	mov	x29, sp
  961690:	b9400061 	ldr	w1, [x3]
  961694:	f2a60742 	movk	x2, #0x303a, lsl #16
  961698:	f9000bf3 	str	x19, [sp, #16]
  96169c:	2a0003f3 	mov	w19, w0
  9616a0:	12177421 	and	w1, w1, #0xfffffe7f
  9616a4:	b9000061 	str	w1, [x3]
  9616a8:	90000064 	adrp	x4, 96d000 <__STACKS_START__+0x1e40>
  9616ac:	b9400040 	ldr	w0, [x2]
  9616b0:	321f0400 	orr	w0, w0, #0x6
  9616b4:	b9000040 	str	w0, [x2]
  9616b8:	b94ea080 	ldr	w0, [x4, #3744]
  9616bc:	340000e0 	cbz	w0, 9616d8 <imx_noc_wrapper_pre_suspend+0x58>
  9616c0:	2a1303e0 	mov	w0, w19
  9616c4:	b0000061 	adrp	x1, 96e000 <tf_mmap+0x120>
  9616c8:	f9400bf3 	ldr	x19, [sp, #16]
  9616cc:	912cc021 	add	x1, x1, #0xb30
  9616d0:	a8c27bfd 	ldp	x29, x30, [sp], #32
  9616d4:	14000de3 	b	964e60 <plat_gic_save>
  9616d8:	52800020 	mov	w0, #0x1                   	// #1
  9616dc:	97fffc15 	bl	960730 <imx_noc_slot_config>
  9616e0:	d2946002 	mov	x2, #0xa300                	// #41728
  9616e4:	d2880a04 	mov	x4, #0x4050                	// #16464
  9616e8:	f2a60702 	movk	x2, #0x3038, lsl #16
  9616ec:	f2a60704 	movk	x4, #0x3038, lsl #16
  9616f0:	d288ae03 	mov	x3, #0x4570                	// #17776
  9616f4:	52800061 	mov	w1, #0x3                   	// #3
  9616f8:	b9400040 	ldr	w0, [x2]
  9616fc:	f2a60703 	movk	x3, #0x3038, lsl #16
  961700:	32040000 	orr	w0, w0, #0x10000000
  961704:	b9000040 	str	w0, [x2]
  961708:	b9000081 	str	w1, [x4]
  96170c:	2a1303e0 	mov	w0, w19
  961710:	b9000061 	str	w1, [x3]
  961714:	b0000061 	adrp	x1, 96e000 <tf_mmap+0x120>
  961718:	f9400bf3 	ldr	x19, [sp, #16]
  96171c:	912cc021 	add	x1, x1, #0xb30
  961720:	a8c27bfd 	ldp	x29, x30, [sp], #32
  961724:	14000dcf 	b	964e60 <plat_gic_save>

0000000000961728 <imx_noc_wrapper_post_resume>:
  961728:	a9be7bfd 	stp	x29, x30, [sp, #-32]!
  96172c:	d2a60743 	mov	x3, #0x303a0000            	// #809107456
  961730:	d2800302 	mov	x2, #0x18                  	// #24
  961734:	910003fd 	mov	x29, sp
  961738:	b9400061 	ldr	w1, [x3]
  96173c:	f2a60742 	movk	x2, #0x303a, lsl #16
  961740:	f9000bf3 	str	x19, [sp, #16]
  961744:	2a0003f3 	mov	w19, w0
  961748:	32190421 	orr	w1, w1, #0x180
  96174c:	b9000061 	str	w1, [x3]
  961750:	90000064 	adrp	x4, 96d000 <__STACKS_START__+0x1e40>
  961754:	b9400040 	ldr	w0, [x2]
  961758:	121d7400 	and	w0, w0, #0xfffffff9
  96175c:	b9000040 	str	w0, [x2]
  961760:	b94ea080 	ldr	w0, [x4, #3744]
  961764:	340000e0 	cbz	w0, 961780 <imx_noc_wrapper_post_resume+0x58>
  961768:	2a1303e0 	mov	w0, w19
  96176c:	b0000061 	adrp	x1, 96e000 <tf_mmap+0x120>
  961770:	f9400bf3 	ldr	x19, [sp, #16]
  961774:	912cc021 	add	x1, x1, #0xb30
  961778:	a8c27bfd 	ldp	x29, x30, [sp], #32
  96177c:	14000dcd 	b	964eb0 <plat_gic_restore>
  961780:	d2800500 	mov	x0, #0x28                  	// #40
  961784:	f2a60680 	movk	x0, #0x3034, lsl #16
  961788:	b9400000 	ldr	w0, [x0]
  96178c:	37000120 	tbnz	w0, #0, 9617b0 <imx_noc_wrapper_post_resume+0x88>
  961790:	52800000 	mov	w0, #0x0                   	// #0
  961794:	97fffbe7 	bl	960730 <imx_noc_slot_config>
  961798:	2a1303e0 	mov	w0, w19
  96179c:	b0000061 	adrp	x1, 96e000 <tf_mmap+0x120>
  9617a0:	f9400bf3 	ldr	x19, [sp, #16]
  9617a4:	912cc021 	add	x1, x1, #0xb30
  9617a8:	a8c27bfd 	ldp	x29, x30, [sp], #32
  9617ac:	14000dc1 	b	964eb0 <plat_gic_restore>
  9617b0:	d2a65f00 	mov	x0, #0x32f80000            	// #855113728
  9617b4:	940000d7 	bl	961b10 <tzc380_init>
  9617b8:	320427e2 	mov	w2, #0xf000003f            	// #-268435393
  9617bc:	d2800001 	mov	x1, #0x0                   	// #0
  9617c0:	52800000 	mov	w0, #0x0                   	// #0
  9617c4:	940000df 	bl	961b40 <tzc380_configure_region>
  9617c8:	52800000 	mov	w0, #0x0                   	// #0
  9617cc:	97fffbd9 	bl	960730 <imx_noc_slot_config>
  9617d0:	17fffff2 	b	961798 <imx_noc_wrapper_post_resume+0x70>
  9617d4:	00000000 	.inst	0x00000000 ; undefined

00000000009617d8 <imx_gpc_init>:
  9617d8:	d2800602 	mov	x2, #0x30                  	// #48
  9617dc:	d2800801 	mov	x1, #0x40                  	// #64
  9617e0:	f2a60742 	movk	x2, #0x303a, lsl #16
  9617e4:	f2a60741 	movk	x1, #0x303a, lsl #16
  9617e8:	d2803803 	mov	x3, #0x1c0                 	// #448
  9617ec:	12800000 	mov	w0, #0xffffffff            	// #-1
  9617f0:	f2a60743 	movk	x3, #0x303a, lsl #16
  9617f4:	b9000040 	str	w0, [x2]
  9617f8:	b9000020 	str	w0, [x1]
  9617fc:	52a61806 	mov	w6, #0x30c00000            	// #817889280
  961800:	b9000060 	str	w0, [x3]
  961804:	d2800683 	mov	x3, #0x34                  	// #52
  961808:	f2a60743 	movk	x3, #0x303a, lsl #16
  96180c:	b901a040 	str	w0, [x2, #416]
  961810:	d2800882 	mov	x2, #0x44                  	// #68
  961814:	b9001020 	str	w0, [x1, #16]
  961818:	f2a60742 	movk	x2, #0x303a, lsl #16
  96181c:	b9000060 	str	w0, [x3]
  961820:	d2801d8c 	mov	x12, #0xec                  	// #236
  961824:	d281008b 	mov	x11, #0x804                 	// #2052
  961828:	b9000040 	str	w0, [x2]
  96182c:	f2a6074c 	movk	x12, #0x303a, lsl #16
  961830:	b9018420 	str	w0, [x1, #388]
  961834:	d2800701 	mov	x1, #0x38                  	// #56
  961838:	f2a60741 	movk	x1, #0x303a, lsl #16
  96183c:	b901a060 	str	w0, [x3, #416]
  961840:	d2800903 	mov	x3, #0x48                  	// #72
  961844:	b9001040 	str	w0, [x2, #16]
  961848:	f2a60743 	movk	x3, #0x303a, lsl #16
  96184c:	b9000020 	str	w0, [x1]
  961850:	f2a6074b 	movk	x11, #0x303a, lsl #16
  961854:	d2810885 	mov	x5, #0x844                 	// #2116
  961858:	b9000060 	str	w0, [x3]
  96185c:	529fffed 	mov	w13, #0xffff                	// #65535
  961860:	b9018440 	str	w0, [x2, #388]
  961864:	d2800782 	mov	x2, #0x3c                  	// #60
  961868:	f2a60742 	movk	x2, #0x303a, lsl #16
  96186c:	b901a020 	str	w0, [x1, #416]
  961870:	d2800981 	mov	x1, #0x4c                  	// #76
  961874:	b9001060 	str	w0, [x3, #16]
  961878:	f2a60741 	movk	x1, #0x303a, lsl #16
  96187c:	b9000040 	str	w0, [x2]
  961880:	f2a60745 	movk	x5, #0x303a, lsl #16
  961884:	d2811084 	mov	x4, #0x884                 	// #2180
  961888:	b9000020 	str	w0, [x1]
  96188c:	f2a60744 	movk	x4, #0x303a, lsl #16
  961890:	b9018460 	str	w0, [x3, #388]
  961894:	d2a60743 	mov	x3, #0x303a0000            	// #809107456
  961898:	b901a040 	str	w0, [x2, #416]
  96189c:	d2800302 	mov	x2, #0x18                  	// #24
  9618a0:	b9001020 	str	w0, [x1, #16]
  9618a4:	f2a60742 	movk	x2, #0x303a, lsl #16
  9618a8:	52808021 	mov	w1, #0x401                 	// #1025
  9618ac:	d281188a 	mov	x10, #0x8c4                 	// #2244
  9618b0:	b9400060 	ldr	w0, [x3]
  9618b4:	f2a6074a 	movk	x10, #0x303a, lsl #16
  9618b8:	d2812089 	mov	x9, #0x904                 	// #2308
  9618bc:	d2812207 	mov	x7, #0x910                 	// #2320
  9618c0:	12197800 	and	w0, w0, #0xffffffbf
  9618c4:	f2a60749 	movk	x9, #0x303a, lsl #16
  9618c8:	2a060000 	orr	w0, w0, w6
  9618cc:	b9000060 	str	w0, [x3]
  9618d0:	f2a60747 	movk	x7, #0x303a, lsl #16
  9618d4:	d2800486 	mov	x6, #0x24                  	// #36
  9618d8:	b9400040 	ldr	w0, [x2]
  9618dc:	f2a60746 	movk	x6, #0x303a, lsl #16
  9618e0:	528c8b68 	mov	w8, #0x645b                	// #25691
  9618e4:	121d7400 	and	w0, w0, #0xfffffff9
  9618e8:	b9000040 	str	w0, [x2]
  9618ec:	b900018d 	str	w13, [x12]
  9618f0:	72a00428 	movk	w8, #0x21, lsl #16
  9618f4:	b9000161 	str	w1, [x11]
  9618f8:	320183e0 	mov	w0, #0x80008000            	// #-2147450880
  9618fc:	b90000a1 	str	w1, [x5]
  961900:	529ff8e5 	mov	w5, #0xffc7                	// #65479
  961904:	b9000081 	str	w1, [x4]
  961908:	72a81fe5 	movk	w5, #0x40ff, lsl #16
  96190c:	b9000141 	str	w1, [x10]
  961910:	d2800402 	mov	x2, #0x20                  	// #32
  961914:	b9000121 	str	w1, [x9]
  961918:	52800504 	mov	w4, #0x28                  	// #40
  96191c:	b90000e8 	str	w8, [x7]
  961920:	f2a60722 	movk	x2, #0x3039, lsl #16
  961924:	b90000c0 	str	w0, [x6]
  961928:	72a00064 	movk	w4, #0x3, lsl #16
  96192c:	b9401460 	ldr	w0, [x3, #20]
  961930:	0a050000 	and	w0, w0, w5
  961934:	2a040000 	orr	w0, w0, w4
  961938:	b9001460 	str	w0, [x3, #20]
  96193c:	b9400040 	ldr	w0, [x2]
  961940:	121f7800 	and	w0, w0, #0xfffffffe
  961944:	b9000040 	str	w0, [x2]
  961948:	d65f03c0 	ret
  96194c:	00000000 	.inst	0x00000000 ; undefined

0000000000961950 <plat_get_power_domain_tree_desc>:
  961950:	90000040 	adrp	x0, 969000 <vprintf+0x100>
  961954:	91222000 	add	x0, x0, #0x888
  961958:	d65f03c0 	ret
  96195c:	00000000 	.inst	0x00000000 ; undefined

0000000000961960 <plat_core_pos_by_mpidr>:
  961960:	92409c01 	and	x1, x0, #0xffffffffff
  961964:	92705c00 	and	x0, x0, #0xffffff0000
  961968:	9260dc21 	and	x1, x1, #0xffffffff00ffffff
  96196c:	9260dc00 	and	x0, x0, #0xffffffff00ffffff
  961970:	b5000120 	cbnz	x0, 961994 <plat_core_pos_by_mpidr+0x34>
  961974:	d348fc22 	lsr	x2, x1, #8
  961978:	12001c20 	and	w0, w1, #0xff
  96197c:	f27f185f 	tst	x2, #0xfe
  961980:	53083c21 	ubfx	w1, w1, #8, #8
  961984:	7a440802 	ccmp	w0, #0x4, #0x2, eq  // eq = none
  961988:	54000068 	b.hi	961994 <plat_core_pos_by_mpidr+0x34>  // b.pmore
  96198c:	0b010800 	add	w0, w0, w1, lsl #2
  961990:	d65f03c0 	ret
  961994:	12800000 	mov	w0, #0xffffffff            	// #-1
  961998:	d65f03c0 	ret
  96199c:	00000000 	.inst	0x00000000 ; undefined

00000000009619a0 <imx_buildinfo_handler>:
  9619a0:	b4000061 	cbz	x1, 9619ac <imx_buildinfo_handler+0xc>
  9619a4:	92800000 	mov	x0, #0xffffffffffffffff    	// #-1
  9619a8:	d65f03c0 	ret
  9619ac:	a9be7bfd 	stp	x29, x30, [sp, #-32]!
  9619b0:	90000040 	adrp	x0, 969000 <vprintf+0x100>
  9619b4:	91132000 	add	x0, x0, #0x4c8
  9619b8:	910003fd 	mov	x29, sp
  9619bc:	f9000fff 	str	xzr, [sp, #24]
  9619c0:	528005a1 	mov	w1, #0x2d                  	// #45
  9619c4:	94001ead 	bl	969478 <strchr>
  9619c8:	aa0003e1 	mov	x1, x0
  9619cc:	b4000120 	cbz	x0, 9619f0 <imx_buildinfo_handler+0x50>
  9619d0:	39400422 	ldrb	w2, [x1, #1]
  9619d4:	91000400 	add	x0, x0, #0x1
  9619d8:	71019c5f 	cmp	w2, #0x67
  9619dc:	54ffff21 	b.ne	9619c0 <imx_buildinfo_handler+0x20>  // b.any
  9619e0:	91000821 	add	x1, x1, #0x2
  9619e4:	910063e0 	add	x0, sp, #0x18
  9619e8:	d28000e2 	mov	x2, #0x7                   	// #7
  9619ec:	94001ce9 	bl	968d90 <memcpy>
  9619f0:	f9400fe0 	ldr	x0, [sp, #24]
  9619f4:	a8c27bfd 	ldp	x29, x30, [sp], #32
  9619f8:	d65f03c0 	ret
  9619fc:	00000000 	.inst	0x00000000 ; undefined

0000000000961a00 <imx_sip_setup>:
  961a00:	52800000 	mov	w0, #0x0                   	// #0
  961a04:	d65f03c0 	ret

0000000000961a08 <imx_sip_handler>:
  961a08:	a9be7bfd 	stp	x29, x30, [sp, #-32]!
  961a0c:	52800087 	mov	w7, #0x4                   	// #4
  961a10:	72b84007 	movk	w7, #0xc200, lsl #16
  961a14:	910003fd 	mov	x29, sp
  961a18:	f9000bf3 	str	x19, [sp, #16]
  961a1c:	6b07001f 	cmp	w0, w7
  961a20:	aa0603f3 	mov	x19, x6
  961a24:	540003a0 	b.eq	961a98 <imx_sip_handler+0x90>  // b.none
  961a28:	540001e9 	b.ls	961a64 <imx_sip_handler+0x5c>  // b.plast
  961a2c:	528000a6 	mov	w6, #0x5                   	// #5
  961a30:	72b84006 	movk	w6, #0xc200, lsl #16
  961a34:	6b06001f 	cmp	w0, w6
  961a38:	54000420 	b.eq	961abc <imx_sip_handler+0xb4>  // b.none
  961a3c:	110008c6 	add	w6, w6, #0x2
  961a40:	6b06001f 	cmp	w0, w6
  961a44:	540004c1 	b.ne	961adc <imx_sip_handler+0xd4>  // b.any
  961a48:	97fffc12 	bl	960a90 <imx_hab_handler>
  961a4c:	93407c01 	sxtw	x1, w0
  961a50:	f9000261 	str	x1, [x19]
  961a54:	aa1303e0 	mov	x0, x19
  961a58:	f9400bf3 	ldr	x19, [sp, #16]
  961a5c:	a8c27bfd 	ldp	x29, x30, [sp], #32
  961a60:	d65f03c0 	ret
  961a64:	52b84006 	mov	w6, #0xc2000000            	// #-1040187392
  961a68:	6b06001f 	cmp	w0, w6
  961a6c:	54000440 	b.eq	961af4 <imx_sip_handler+0xec>  // b.none
  961a70:	11000cc6 	add	w6, w6, #0x3
  961a74:	6b06001f 	cmp	w0, w6
  961a78:	54000321 	b.ne	961adc <imx_sip_handler+0xd4>  // b.any
  961a7c:	97ffffc9 	bl	9619a0 <imx_buildinfo_handler>
  961a80:	aa0003e1 	mov	x1, x0
  961a84:	f9000261 	str	x1, [x19]
  961a88:	aa1303e0 	mov	x0, x19
  961a8c:	f9400bf3 	ldr	x19, [sp, #16]
  961a90:	a8c27bfd 	ldp	x29, x30, [sp], #32
  961a94:	d65f03c0 	ret
  961a98:	aa0303e4 	mov	x4, x3
  961a9c:	aa0203e3 	mov	x3, x2
  961aa0:	aa0103e2 	mov	x2, x1
  961aa4:	aa1303e1 	mov	x1, x19
  961aa8:	940003fe 	bl	962aa0 <dram_dvfs_handler>
  961aac:	93407c00 	sxtw	x0, w0
  961ab0:	f9400bf3 	ldr	x19, [sp, #16]
  961ab4:	a8c27bfd 	ldp	x29, x30, [sp], #32
  961ab8:	d65f03c0 	ret
  961abc:	aa1303e4 	mov	x4, x19
  961ac0:	97fffb9a 	bl	960928 <imx_src_handler>
  961ac4:	93407c01 	sxtw	x1, w0
  961ac8:	f9000261 	str	x1, [x19]
  961acc:	aa1303e0 	mov	x0, x19
  961ad0:	f9400bf3 	ldr	x19, [sp, #16]
  961ad4:	a8c27bfd 	ldp	x29, x30, [sp], #32
  961ad8:	d65f03c0 	ret
  961adc:	92800001 	mov	x1, #0xffffffffffffffff    	// #-1
  961ae0:	f9000261 	str	x1, [x19]
  961ae4:	aa1303e0 	mov	x0, x19
  961ae8:	f9400bf3 	ldr	x19, [sp, #16]
  961aec:	a8c27bfd 	ldp	x29, x30, [sp], #32
  961af0:	d65f03c0 	ret
  961af4:	97fffb7f 	bl	9608f0 <imx_gpc_handler>
  961af8:	93407c01 	sxtw	x1, w0
  961afc:	f9000261 	str	x1, [x19]
  961b00:	aa1303e0 	mov	x0, x19
  961b04:	f9400bf3 	ldr	x19, [sp, #16]
  961b08:	a8c27bfd 	ldp	x29, x30, [sp], #32
  961b0c:	d65f03c0 	ret

0000000000961b10 <tzc380_init>:
  961b10:	90000081 	adrp	x1, 971000 <imx_gicv3_ctx+0x24d0>
  961b14:	910ec022 	add	x2, x1, #0x3b0
  961b18:	f901d820 	str	x0, [x1, #944]
  961b1c:	b9400000 	ldr	w0, [x0]
  961b20:	12000c01 	and	w1, w0, #0xf
  961b24:	d3483400 	ubfx	x0, x0, #8, #6
  961b28:	11000421 	add	w1, w1, #0x1
  961b2c:	11000400 	add	w0, w0, #0x1
  961b30:	39002040 	strb	w0, [x2, #8]
  961b34:	39002441 	strb	w1, [x2, #9]
  961b38:	d65f03c0 	ret
  961b3c:	00000000 	.inst	0x00000000 ; undefined

0000000000961b40 <tzc380_configure_region>:
  961b40:	90000083 	adrp	x3, 971000 <imx_gicv3_ctx+0x24d0>
  961b44:	531c1c00 	ubfiz	w0, w0, #4, #8
  961b48:	11040000 	add	w0, w0, #0x100
  961b4c:	f941d863 	ldr	x3, [x3, #944]
  961b50:	11001005 	add	w5, w0, #0x4
  961b54:	11002004 	add	w4, w0, #0x8
  961b58:	b8204861 	str	w1, [x3, w0, uxtw]
  961b5c:	d360fc21 	lsr	x1, x1, #32
  961b60:	b8254861 	str	w1, [x3, w5, uxtw]
  961b64:	b8244862 	str	w2, [x3, w4, uxtw]
  961b68:	d65f03c0 	ret
  961b6c:	00000000 	.inst	0x00000000 ; undefined

0000000000961b70 <udelay>:
  961b70:	a9bd7bfd 	stp	x29, x30, [sp, #-48]!
  961b74:	910003fd 	mov	x29, sp
  961b78:	a90153f3 	stp	x19, x20, [sp, #16]
  961b7c:	90000074 	adrp	x20, 96d000 <__STACKS_START__+0x1e40>
  961b80:	2a0003f3 	mov	w19, w0
  961b84:	f9475680 	ldr	x0, [x20, #3752]
  961b88:	f9400000 	ldr	x0, [x0]
  961b8c:	f90013f5 	str	x21, [sp, #32]
  961b90:	d63f0000 	blr	x0
  961b94:	2a0003f5 	mov	w21, w0
  961b98:	f9475681 	ldr	x1, [x20, #3752]
  961b9c:	29410c20 	ldp	w0, w3, [x1, #8]
  961ba0:	51000402 	sub	w2, w0, #0x1
  961ba4:	1b030a73 	madd	w19, w19, w3, w2
  961ba8:	1ac00a73 	udiv	w19, w19, w0
  961bac:	11000673 	add	w19, w19, #0x1
  961bb0:	14000002 	b	961bb8 <udelay+0x48>
  961bb4:	f9475681 	ldr	x1, [x20, #3752]
  961bb8:	f9400021 	ldr	x1, [x1]
  961bbc:	d63f0020 	blr	x1
  961bc0:	4b0002a0 	sub	w0, w21, w0
  961bc4:	6b00027f 	cmp	w19, w0
  961bc8:	54ffff68 	b.hi	961bb4 <udelay+0x44>  // b.pmore
  961bcc:	a94153f3 	ldp	x19, x20, [sp, #16]
  961bd0:	f94013f5 	ldr	x21, [sp, #32]
  961bd4:	a8c37bfd 	ldp	x29, x30, [sp], #48
  961bd8:	d65f03c0 	ret
  961bdc:	00000000 	.inst	0x00000000 ; undefined

0000000000961be0 <timer_init>:
  961be0:	90000061 	adrp	x1, 96d000 <__STACKS_START__+0x1e40>
  961be4:	f9075420 	str	x0, [x1, #3752]
  961be8:	d65f03c0 	ret
  961bec:	00000000 	.inst	0x00000000 ; undefined

0000000000961bf0 <get_timer_value>:
  961bf0:	d53be020 	mrs	x0, cntpct_el0
  961bf4:	2a2003e0 	mvn	w0, w0
  961bf8:	d65f03c0 	ret
  961bfc:	00000000 	.inst	0x00000000 ; undefined

0000000000961c00 <generic_delay_timer_init>:
  961c00:	a9bf7bfd 	stp	x29, x30, [sp, #-16]!
  961c04:	910003fd 	mov	x29, sp
  961c08:	97fffe16 	bl	961460 <plat_get_syscnt_freq2>
  961c0c:	2a0003e2 	mov	w2, w0
  961c10:	529999a0 	mov	w0, #0xcccd                	// #52429
  961c14:	52933325 	mov	w5, #0x9999                	// #39321
  961c18:	72b99980 	movk	w0, #0xcccc, lsl #16
  961c1c:	52884804 	mov	w4, #0x4240                	// #16960
  961c20:	72a33325 	movk	w5, #0x1999, lsl #16
  961c24:	72a001e4 	movk	w4, #0xf, lsl #16
  961c28:	1b007c41 	mul	w1, w2, w0
  961c2c:	13810421 	ror	w1, w1, #1
  961c30:	6b05003f 	cmp	w1, w5
  961c34:	54000208 	b.hi	961c74 <generic_delay_timer_init+0x74>  // b.pmore
  961c38:	9ba07c42 	umull	x2, w2, w0
  961c3c:	5290d404 	mov	w4, #0x86a0                	// #34464
  961c40:	528000a3 	mov	w3, #0x5                   	// #5
  961c44:	72a00024 	movk	w4, #0x1, lsl #16
  961c48:	d363fc42 	lsr	x2, x2, #35
  961c4c:	1b007c41 	mul	w1, w2, w0
  961c50:	9ba07c87 	umull	x7, w4, w0
  961c54:	9ba07c46 	umull	x6, w2, w0
  961c58:	13810421 	ror	w1, w1, #1
  961c5c:	6b05003f 	cmp	w1, w5
  961c60:	540000a8 	b.hi	961c74 <generic_delay_timer_init+0x74>  // b.pmore
  961c64:	d363fce4 	lsr	x4, x7, #35
  961c68:	d363fcc2 	lsr	x2, x6, #35
  961c6c:	71000463 	subs	w3, w3, #0x1
  961c70:	54fffee1 	b.ne	961c4c <generic_delay_timer_init+0x4c>  // b.any
  961c74:	90000063 	adrp	x3, 96d000 <__STACKS_START__+0x1e40>
  961c78:	913ac060 	add	x0, x3, #0xeb0
  961c7c:	90000001 	adrp	x1, 961000 <imx_domain_suspend+0x50>
  961c80:	912fc021 	add	x1, x1, #0xbf0
  961c84:	f9075861 	str	x1, [x3, #3760]
  961c88:	29010804 	stp	w4, w2, [x0, #8]
  961c8c:	a8c17bfd 	ldp	x29, x30, [sp], #16
  961c90:	17ffffd4 	b	961be0 <timer_init>
  961c94:	00000000 	.inst	0x00000000 ; undefined

0000000000961c98 <tcr_physical_addr_size_bits>:
  961c98:	aa0003e1 	mov	x1, x0
  961c9c:	d28000a0 	mov	x0, #0x5                   	// #5
  961ca0:	f2540c3f 	tst	x1, #0xf00000000000
  961ca4:	54000181 	b.ne	961cd4 <tcr_physical_addr_size_bits+0x3c>  // b.any
  961ca8:	f256043f 	tst	x1, #0xc0000000000
  961cac:	d2800080 	mov	x0, #0x4                   	// #4
  961cb0:	54000121 	b.ne	961cd4 <tcr_physical_addr_size_bits+0x3c>  // b.any
  961cb4:	f258043f 	tst	x1, #0x30000000000
  961cb8:	d2800060 	mov	x0, #0x3                   	// #3
  961cbc:	540000c1 	b.ne	961cd4 <tcr_physical_addr_size_bits+0x3c>  // b.any
  961cc0:	f25c0c3f 	tst	x1, #0xf000000000
  961cc4:	d2800040 	mov	x0, #0x2                   	// #2
  961cc8:	54000061 	b.ne	961cd4 <tcr_physical_addr_size_bits+0x3c>  // b.any
  961ccc:	f2600c3f 	tst	x1, #0xf00000000
  961cd0:	9a9f07e0 	cset	x0, ne  // ne = any
  961cd4:	d65f03c0 	ret

0000000000961cd8 <is_dcache_enabled>:
  961cd8:	d5384240 	mrs	x0, currentel
  961cdc:	53020c00 	ubfx	w0, w0, #2, #2
  961ce0:	7100041f 	cmp	w0, #0x1
  961ce4:	54000120 	b.eq	961d08 <is_dcache_enabled+0x30>  // b.none
  961ce8:	7100081f 	cmp	w0, #0x2
  961cec:	54000080 	b.eq	961cfc <is_dcache_enabled+0x24>  // b.none
  961cf0:	d53e1000 	mrs	x0, sctlr_el3
  961cf4:	53020800 	ubfx	w0, w0, #2, #1
  961cf8:	d65f03c0 	ret
  961cfc:	d53c1000 	mrs	x0, sctlr_el2
  961d00:	53020800 	ubfx	w0, w0, #2, #1
  961d04:	d65f03c0 	ret
  961d08:	d5381000 	mrs	x0, sctlr_el1
  961d0c:	53020800 	ubfx	w0, w0, #2, #1
  961d10:	d65f03c0 	ret
  961d14:	00000000 	.inst	0x00000000 ; undefined

0000000000961d18 <xlat_arch_regime_get_xn_desc>:
  961d18:	7100041f 	cmp	w0, #0x1
  961d1c:	d2e00c01 	mov	x1, #0x60000000000000      	// #27021597764222976
  961d20:	d2e00800 	mov	x0, #0x40000000000000      	// #18014398509481984
  961d24:	9a800020 	csel	x0, x1, x0, eq  // eq = none
  961d28:	d65f03c0 	ret
  961d2c:	00000000 	.inst	0x00000000 ; undefined

0000000000961d30 <xlat_arch_current_el>:
  961d30:	d5384240 	mrs	x0, currentel
  961d34:	53020c00 	ubfx	w0, w0, #2, #2
  961d38:	d65f03c0 	ret
  961d3c:	00000000 	.inst	0x00000000 ; undefined

0000000000961d40 <setup_mmu_cfg>:
  961d40:	91000486 	add	x6, x4, #0x1
  961d44:	52800804 	mov	w4, #0x40                  	// #64
  961d48:	dac000c6 	rbit	x6, x6
  961d4c:	f27f003f 	tst	x1, #0x2
  961d50:	dac010c6 	clz	x6, x6
  961d54:	5286a001 	mov	w1, #0x3500                	// #13568
  961d58:	4b060084 	sub	w4, w4, w6
  961d5c:	aa0003e6 	mov	x6, x0
  961d60:	2a010081 	orr	w1, w4, w1
  961d64:	a9bf7bfd 	stp	x29, x30, [sp, #-16]!
  961d68:	1a840024 	csel	w4, w1, w4, eq  // eq = none
  961d6c:	910003fd 	mov	x29, sp
  961d70:	aa0303e0 	mov	x0, x3
  961d74:	93407c84 	sxtw	x4, w4
  961d78:	97ffffc8 	bl	961c98 <tcr_physical_addr_size_bits>
  961d7c:	aa004081 	orr	x1, x4, x0, lsl #16
  961d80:	aa008083 	orr	x3, x4, x0, lsl #32
  961d84:	710004bf 	cmp	w5, #0x1
  961d88:	b2690060 	orr	x0, x3, #0x800000
  961d8c:	d2b01005 	mov	x5, #0x80800000            	// #2155872256
  961d90:	aa050021 	orr	x1, x1, x5
  961d94:	9a801021 	csel	x1, x1, x0, ne  // ne = any
  961d98:	d5380740 	mrs	x0, id_aa64mmfr2_el1
  961d9c:	d2809fe3 	mov	x3, #0x4ff                 	// #1279
  961da0:	f2400c1f 	tst	x0, #0xf
  961da4:	b2400040 	orr	x0, x2, #0x1
  961da8:	f2a00883 	movk	x3, #0x44, lsl #16
  961dac:	9a821002 	csel	x2, x0, x2, ne  // ne = any
  961db0:	a90004c3 	stp	x3, x1, [x6]
  961db4:	f90008c2 	str	x2, [x6, #16]
  961db8:	a8c17bfd 	ldp	x29, x30, [sp], #16
  961dbc:	d65f03c0 	ret

0000000000961dc0 <mmap_add_region>:
  961dc0:	a9bc7bfd 	stp	x29, x30, [sp, #-64]!
  961dc4:	aa0003e6 	mov	x6, x0
  961dc8:	aa0103e5 	mov	x5, x1
  961dcc:	d2a80004 	mov	x4, #0x40000000            	// #1073741824
  961dd0:	910003fd 	mov	x29, sp
  961dd4:	910063e1 	add	x1, sp, #0x18
  961dd8:	d0000040 	adrp	x0, 96b000 <__RO_END__>
  961ddc:	9104c000 	add	x0, x0, #0x130
  961de0:	a90197e6 	stp	x6, x5, [sp, #24]
  961de4:	f90017e2 	str	x2, [sp, #40]
  961de8:	b90033e3 	str	w3, [sp, #48]
  961dec:	f9001fe4 	str	x4, [sp, #56]
  961df0:	940000fe 	bl	9621e8 <mmap_add_region_ctx>
  961df4:	a8c47bfd 	ldp	x29, x30, [sp], #64
  961df8:	d65f03c0 	ret
  961dfc:	00000000 	.inst	0x00000000 ; undefined

0000000000961e00 <mmap_add>:
  961e00:	aa0003e1 	mov	x1, x0
  961e04:	d0000042 	adrp	x2, 96b000 <__RO_END__>
  961e08:	9104c040 	add	x0, x2, #0x130
  961e0c:	14000197 	b	962468 <mmap_add_ctx>

0000000000961e10 <init_xlat_tables>:
  961e10:	a9bf7bfd 	stp	x29, x30, [sp, #-16]!
  961e14:	910003fd 	mov	x29, sp
  961e18:	97ffffc6 	bl	961d30 <xlat_arch_current_el>
  961e1c:	2a0003e1 	mov	w1, w0
  961e20:	7100041f 	cmp	w0, #0x1
  961e24:	d0000040 	adrp	x0, 96b000 <__RO_END__>
  961e28:	9104c000 	add	x0, x0, #0x130
  961e2c:	54000080 	b.eq	961e3c <init_xlat_tables+0x2c>  // b.none
  961e30:	7100083f 	cmp	w1, #0x2
  961e34:	54000040 	b.eq	961e3c <init_xlat_tables+0x2c>  // b.none
  961e38:	52800061 	mov	w1, #0x3                   	// #3
  961e3c:	b9005801 	str	w1, [x0, #88]
  961e40:	a8c17bfd 	ldp	x29, x30, [sp], #16
  961e44:	1400019b 	b	9624b0 <init_xlat_tables_ctx>

0000000000961e48 <enable_mmu_el3>:
  961e48:	d0000043 	adrp	x3, 96b000 <__RO_END__>
  961e4c:	9104c063 	add	x3, x3, #0x130
  961e50:	a9be7bfd 	stp	x29, x30, [sp, #-32]!
  961e54:	90000081 	adrp	x1, 971000 <imx_gicv3_ctx+0x24d0>
  961e58:	52800065 	mov	w5, #0x3                   	// #3
  961e5c:	910003fd 	mov	x29, sp
  961e60:	f9400464 	ldr	x4, [x3, #8]
  961e64:	f9401862 	ldr	x2, [x3, #48]
  961e68:	f9402063 	ldr	x3, [x3, #64]
  961e6c:	f9000bf3 	str	x19, [sp, #16]
  961e70:	2a0003f3 	mov	w19, w0
  961e74:	910f0020 	add	x0, x1, #0x3c0
  961e78:	2a1303e1 	mov	w1, w19
  961e7c:	97ffffb1 	bl	961d40 <setup_mmu_cfg>
  961e80:	2a1303e0 	mov	w0, w19
  961e84:	f9400bf3 	ldr	x19, [sp, #16]
  961e88:	a8c27bfd 	ldp	x29, x30, [sp], #32
  961e8c:	1400194d 	b	9683c0 <enable_mmu_direct_el3>

0000000000961e90 <xlat_desc>:
  961e90:	a9be7bfd 	stp	x29, x30, [sp, #-32]!
  961e94:	71000c7f 	cmp	w3, #0x3
  961e98:	d37f7c23 	ubfiz	x3, x1, #1, #32
  961e9c:	910003fd 	mov	x29, sp
  961ea0:	927b0063 	and	x3, x3, #0x20
  961ea4:	b2790045 	orr	x5, x2, #0x80
  961ea8:	d2800064 	mov	x4, #0x3                   	// #3
  961eac:	9a9f0484 	csinc	x4, x4, xzr, eq  // eq = none
  961eb0:	f27d003f 	tst	x1, #0x8
  961eb4:	b9405800 	ldr	w0, [x0, #88]
  961eb8:	9a8200a2 	csel	x2, x5, x2, eq  // eq = none
  961ebc:	aa040063 	orr	x3, x3, x4
  961ec0:	a90153f3 	stp	x19, x20, [sp, #16]
  961ec4:	aa030042 	orr	x2, x2, x3
  961ec8:	d2808813 	mov	x19, #0x440                 	// #1088
  961ecc:	7100041f 	cmp	w0, #0x1
  961ed0:	aa130053 	orr	x19, x2, x19
  961ed4:	54000081 	b.ne	961ee4 <xlat_desc+0x54>  // b.any
  961ed8:	b2760042 	orr	x2, x2, #0x400
  961edc:	f27a003f 	tst	x1, #0x40
  961ee0:	9a821273 	csel	x19, x19, x2, ne  // ne = any
  961ee4:	72000834 	ands	w20, w1, #0x7
  961ee8:	540001e0 	b.eq	961f24 <xlat_desc+0x94>  // b.none
  961eec:	52800502 	mov	w2, #0x28                  	// #40
  961ef0:	6a02003f 	tst	w1, w2
  961ef4:	54000121 	b.ne	961f18 <xlat_desc+0x88>  // b.any
  961ef8:	71000a9f 	cmp	w20, #0x2
  961efc:	b2780660 	orr	x0, x19, #0x300
  961f00:	d2804101 	mov	x1, #0x208                 	// #520
  961f04:	aa010273 	orr	x19, x19, x1
  961f08:	9a801260 	csel	x0, x19, x0, ne  // ne = any
  961f0c:	a94153f3 	ldp	x19, x20, [sp, #16]
  961f10:	a8c27bfd 	ldp	x29, x30, [sp], #32
  961f14:	d65f03c0 	ret
  961f18:	97ffff80 	bl	961d18 <xlat_arch_regime_get_xn_desc>
  961f1c:	aa000273 	orr	x19, x19, x0
  961f20:	17fffff6 	b	961ef8 <xlat_desc+0x68>
  961f24:	97ffff7d 	bl	961d18 <xlat_arch_regime_get_xn_desc>
  961f28:	aa000260 	orr	x0, x19, x0
  961f2c:	d2804081 	mov	x1, #0x204                 	// #516
  961f30:	aa010000 	orr	x0, x0, x1
  961f34:	a94153f3 	ldp	x19, x20, [sp, #16]
  961f38:	a8c27bfd 	ldp	x29, x30, [sp], #32
  961f3c:	d65f03c0 	ret

0000000000961f40 <xlat_tables_map_region>:
  961f40:	a9b87bfd 	stp	x29, x30, [sp, #-128]!
  961f44:	910003fd 	mov	x29, sp
  961f48:	a9046bf9 	stp	x25, x26, [sp, #64]
  961f4c:	aa0103f9 	mov	x25, x1
  961f50:	a90153f3 	stp	x19, x20, [sp, #16]
  961f54:	d2800034 	mov	x20, #0x1                   	// #1
  961f58:	a90363f7 	stp	x23, x24, [sp, #48]
  961f5c:	0b050cb7 	add	w23, w5, w5, lsl #3
  961f60:	4b1703f7 	neg	w23, w23
  961f64:	f9400421 	ldr	x1, [x1, #8]
  961f68:	a9025bf5 	stp	x21, x22, [sp, #32]
  961f6c:	2a0503f6 	mov	w22, w5
  961f70:	f9400b33 	ldr	x19, [x25, #16]
  961f74:	11009ee5 	add	w5, w23, #0x27
  961f78:	a90573fb 	stp	x27, x28, [sp, #80]
  961f7c:	2a0403f5 	mov	w21, w4
  961f80:	8b130033 	add	x19, x1, x19
  961f84:	b90077e5 	str	w5, [sp, #116]
  961f88:	aa0003fc 	mov	x28, x0
  961f8c:	eb02003f 	cmp	x1, x2
  961f90:	d1000673 	sub	x19, x19, #0x1
  961f94:	9ac52294 	lsl	x20, x20, x5
  961f98:	52800017 	mov	w23, #0x0                   	// #0
  961f9c:	540000c9 	b.ls	961fb4 <xlat_tables_map_region+0x74>  // b.plast
  961fa0:	cb1403e0 	neg	x0, x20
  961fa4:	8a010001 	and	x1, x0, x1
  961fa8:	cb020028 	sub	x8, x1, x2
  961fac:	aa0103e2 	mov	x2, x1
  961fb0:	9ac52517 	lsr	x23, x8, x5
  961fb4:	3941d3e0 	ldrb	w0, [sp, #116]
  961fb8:	92800018 	mov	x24, #0xffffffffffffffff    	// #-1
  961fbc:	8b374c7a 	add	x26, x3, w23, uxtw #3
  961fc0:	9ac02318 	lsl	x24, x24, x0
  961fc4:	110006c0 	add	w0, w22, #0x1
  961fc8:	b90073e0 	str	w0, [sp, #112]
  961fcc:	aa3803e0 	mvn	x0, x24
  961fd0:	f9003fe0 	str	x0, [sp, #120]
  961fd4:	14000019 	b	962038 <xlat_tables_map_region+0xf8>
  961fd8:	eb06005f 	cmp	x2, x6
  961fdc:	fa588080 	ccmp	x4, x24, #0x0, hi  // hi = pmore
  961fe0:	54000228 	b.hi	962024 <xlat_tables_map_region+0xe4>  // b.pmore
  961fe4:	34000860 	cbz	w0, 9620f0 <xlat_tables_map_region+0x1b0>
  961fe8:	b94073e5 	ldr	w5, [sp, #112]
  961fec:	92748c63 	and	x3, x3, #0xfffffffff000
  961ff0:	aa1903e1 	mov	x1, x25
  961ff4:	52804004 	mov	w4, #0x200                 	// #512
  961ff8:	aa1c03e0 	mov	x0, x28
  961ffc:	f90037e3 	str	x3, [sp, #104]
  962000:	97ffffd0 	bl	961f40 <xlat_tables_map_region>
  962004:	f90033e0 	str	x0, [sp, #96]
  962008:	97ffff34 	bl	961cd8 <is_dcache_enabled>
  96200c:	72001c1f 	tst	w0, #0xff
  962010:	f94037e3 	ldr	x3, [sp, #104]
  962014:	54000961 	b.ne	962140 <xlat_tables_map_region+0x200>  // b.any
  962018:	f94033e0 	ldr	x0, [sp, #96]
  96201c:	eb18001f 	cmp	x0, x24
  962020:	540009c1 	b.ne	962158 <xlat_tables_map_region+0x218>  // b.any
  962024:	110006f7 	add	w23, w23, #0x1
  962028:	9100235a 	add	x26, x26, #0x8
  96202c:	eb1b027f 	cmp	x19, x27
  962030:	54000509 	b.ls	9620d0 <xlat_tables_map_region+0x190>  // b.plast
  962034:	aa1b03e2 	mov	x2, x27
  962038:	6b1502ff 	cmp	w23, w21
  96203c:	54000b22 	b.cs	9621a0 <xlat_tables_map_region+0x260>  // b.hs, b.nlast
  962040:	a9409b24 	ldp	x4, x6, [x25, #8]
  962044:	8b14005b 	add	x27, x2, x20
  962048:	f9400343 	ldr	x3, [x26]
  96204c:	d1000778 	sub	x24, x27, #0x1
  962050:	12000460 	and	w0, w3, #0x3
  962054:	8b060086 	add	x6, x4, x6
  962058:	eb02009f 	cmp	x4, x2
  96205c:	d10004c6 	sub	x6, x6, #0x1
  962060:	fa469302 	ccmp	x24, x6, #0x2, ls  // ls = plast
  962064:	54fffba8 	b.hi	961fd8 <xlat_tables_map_region+0x98>  // b.pmore
  962068:	f9400321 	ldr	x1, [x25]
  96206c:	71000edf 	cmp	w22, #0x3
  962070:	cb040024 	sub	x4, x1, x4
  962074:	8b020084 	add	x4, x4, x2
  962078:	54000820 	b.eq	96217c <xlat_tables_map_region+0x23c>  // b.none
  96207c:	71000c1f 	cmp	w0, #0x3
  962080:	54fffb40 	b.eq	961fe8 <xlat_tables_map_region+0xa8>  // b.none
  962084:	35fffd00 	cbnz	w0, 962024 <xlat_tables_map_region+0xe4>
  962088:	f9403fe0 	ldr	x0, [sp, #120]
  96208c:	ea00009f 	tst	x4, x0
  962090:	7a400ac4 	ccmp	w22, #0x0, #0x4, eq  // eq = none
  962094:	540002e0 	b.eq	9620f0 <xlat_tables_map_region+0x1b0>  // b.none
  962098:	f9401320 	ldr	x0, [x25, #32]
  96209c:	3941d3e1 	ldrb	w1, [sp, #116]
  9620a0:	9ac12400 	lsr	x0, x0, x1
  9620a4:	b4000260 	cbz	x0, 9620f0 <xlat_tables_map_region+0x1b0>
  9620a8:	b9401b21 	ldr	w1, [x25, #24]
  9620ac:	aa0403e2 	mov	x2, x4
  9620b0:	2a1603e3 	mov	w3, w22
  9620b4:	aa1c03e0 	mov	x0, x28
  9620b8:	97ffff76 	bl	961e90 <xlat_desc>
  9620bc:	f9000340 	str	x0, [x26]
  9620c0:	110006f7 	add	w23, w23, #0x1
  9620c4:	9100235a 	add	x26, x26, #0x8
  9620c8:	eb1b027f 	cmp	x19, x27
  9620cc:	54fffb48 	b.hi	962034 <xlat_tables_map_region+0xf4>  // b.pmore
  9620d0:	aa1803e0 	mov	x0, x24
  9620d4:	a94153f3 	ldp	x19, x20, [sp, #16]
  9620d8:	a9425bf5 	ldp	x21, x22, [sp, #32]
  9620dc:	a94363f7 	ldp	x23, x24, [sp, #48]
  9620e0:	a9446bf9 	ldp	x25, x26, [sp, #64]
  9620e4:	a94573fb 	ldp	x27, x28, [sp, #80]
  9620e8:	a8c87bfd 	ldp	x29, x30, [sp], #128
  9620ec:	d65f03c0 	ret
  9620f0:	b9402f80 	ldr	w0, [x28, #44]
  9620f4:	f9401383 	ldr	x3, [x28, #32]
  9620f8:	11000401 	add	w1, w0, #0x1
  9620fc:	b9002f81 	str	w1, [x28, #44]
  962100:	93747c00 	sbfiz	x0, x0, #12, #32
  962104:	ab000063 	adds	x3, x3, x0
  962108:	540005e0 	b.eq	9621c4 <xlat_tables_map_region+0x284>  // b.none
  96210c:	b94073e5 	ldr	w5, [sp, #112]
  962110:	b2400460 	orr	x0, x3, #0x3
  962114:	aa1903e1 	mov	x1, x25
  962118:	f9000340 	str	x0, [x26]
  96211c:	52804004 	mov	w4, #0x200                 	// #512
  962120:	aa1c03e0 	mov	x0, x28
  962124:	f90037e3 	str	x3, [sp, #104]
  962128:	97ffff86 	bl	961f40 <xlat_tables_map_region>
  96212c:	f90033e0 	str	x0, [sp, #96]
  962130:	97fffeea 	bl	961cd8 <is_dcache_enabled>
  962134:	72001c1f 	tst	w0, #0xff
  962138:	f94037e3 	ldr	x3, [sp, #104]
  96213c:	54fff6e0 	b.eq	962018 <xlat_tables_map_region+0xd8>  // b.none
  962140:	aa0303e0 	mov	x0, x3
  962144:	d2820001 	mov	x1, #0x1000                	// #4096
  962148:	94001a6f 	bl	968b04 <clean_dcache_range>
  96214c:	f94033e0 	ldr	x0, [sp, #96]
  962150:	eb18001f 	cmp	x0, x24
  962154:	54fff680 	b.eq	962024 <xlat_tables_map_region+0xe4>  // b.none
  962158:	f94033f8 	ldr	x24, [sp, #96]
  96215c:	a94153f3 	ldp	x19, x20, [sp, #16]
  962160:	aa1803e0 	mov	x0, x24
  962164:	a9425bf5 	ldp	x21, x22, [sp, #32]
  962168:	a94363f7 	ldp	x23, x24, [sp, #48]
  96216c:	a9446bf9 	ldp	x25, x26, [sp, #64]
  962170:	a94573fb 	ldp	x27, x28, [sp, #80]
  962174:	a8c87bfd 	ldp	x29, x30, [sp], #128
  962178:	d65f03c0 	ret
  96217c:	71000c1f 	cmp	w0, #0x3
  962180:	54fff520 	b.eq	962024 <xlat_tables_map_region+0xe4>  // b.none
  962184:	b9401b21 	ldr	w1, [x25, #24]
  962188:	aa0403e2 	mov	x2, x4
  96218c:	2a1603e3 	mov	w3, w22
  962190:	aa1c03e0 	mov	x0, x28
  962194:	97ffff3f 	bl	961e90 <xlat_desc>
  962198:	f9000340 	str	x0, [x26]
  96219c:	17ffffc9 	b	9620c0 <xlat_tables_map_region+0x180>
  9621a0:	d1000458 	sub	x24, x2, #0x1
  9621a4:	aa1803e0 	mov	x0, x24
  9621a8:	a94153f3 	ldp	x19, x20, [sp, #16]
  9621ac:	a9425bf5 	ldp	x21, x22, [sp, #32]
  9621b0:	a94363f7 	ldp	x23, x24, [sp, #48]
  9621b4:	a9446bf9 	ldp	x25, x26, [sp, #64]
  9621b8:	a94573fb 	ldp	x27, x28, [sp, #80]
  9621bc:	a8c87bfd 	ldp	x29, x30, [sp], #128
  9621c0:	d65f03c0 	ret
  9621c4:	aa0203f8 	mov	x24, x2
  9621c8:	aa1803e0 	mov	x0, x24
  9621cc:	a94153f3 	ldp	x19, x20, [sp, #16]
  9621d0:	a9425bf5 	ldp	x21, x22, [sp, #32]
  9621d4:	a94363f7 	ldp	x23, x24, [sp, #48]
  9621d8:	a9446bf9 	ldp	x25, x26, [sp, #64]
  9621dc:	a94573fb 	ldp	x27, x28, [sp, #80]
  9621e0:	a8c87bfd 	ldp	x29, x30, [sp], #128
  9621e4:	d65f03c0 	ret

00000000009621e8 <mmap_add_region_ctx>:
  9621e8:	f940082c 	ldr	x12, [x1, #16]
  9621ec:	b500004c 	cbnz	x12, 9621f4 <mmap_add_region_ctx+0xc>
  9621f0:	d65f03c0 	ret
  9621f4:	a9bc7bfd 	stp	x29, x30, [sp, #-64]!
  9621f8:	910003fd 	mov	x29, sp
  9621fc:	a9025bf5 	stp	x21, x22, [sp, #32]
  962200:	aa0103f6 	mov	x22, x1
  962204:	a9401c21 	ldp	x1, x7, [x1]
  962208:	f94012c2 	ldr	x2, [x22, #32]
  96220c:	f9001bf7 	str	x23, [sp, #48]
  962210:	aa0003f7 	mov	x23, x0
  962214:	aa0c0020 	orr	x0, x1, x12
  962218:	aa070000 	orr	x0, x0, x7
  96221c:	f2402c1f 	tst	x0, #0xfff
  962220:	540011a1 	b.ne	962454 <mmap_add_region_ctx+0x26c>  // b.any
  962224:	f148005f 	cmp	x2, #0x200, lsl #12
  962228:	d2a80000 	mov	x0, #0x40000000            	// #1073741824
  96222c:	fa401044 	ccmp	x2, x0, #0x4, ne  // ne = any
  962230:	d2820000 	mov	x0, #0x1000                	// #4096
  962234:	fa401044 	ccmp	x2, x0, #0x4, ne  // ne = any
  962238:	540010e1 	b.ne	962454 <mmap_add_region_ctx+0x26c>  // b.any
  96223c:	8b0c0035 	add	x21, x1, x12
  962240:	8b07018e 	add	x14, x12, x7
  962244:	d10006b5 	sub	x21, x21, #0x1
  962248:	a90153f3 	stp	x19, x20, [sp, #16]
  96224c:	eb15003f 	cmp	x1, x21
  962250:	d10005d4 	sub	x20, x14, #0x1
  962254:	fa5490e2 	ccmp	x7, x20, #0x2, ls  // ls = plast
  962258:	54000f08 	b.hi	962438 <mmap_add_region_ctx+0x250>  // b.pmore
  96225c:	f94006e0 	ldr	x0, [x23, #8]
  962260:	eb00029f 	cmp	x20, x0
  962264:	54000ea8 	b.hi	962438 <mmap_add_region_ctx+0x250>  // b.pmore
  962268:	f94002e0 	ldr	x0, [x23]
  96226c:	eb0002bf 	cmp	x21, x0
  962270:	54000e48 	b.hi	962438 <mmap_add_region_ctx+0x250>  // b.pmore
  962274:	b9401aed 	ldr	w13, [x23, #24]
  962278:	52800500 	mov	w0, #0x28                  	// #40
  96227c:	f9400ae2 	ldr	x2, [x23, #16]
  962280:	9b2009ad 	smaddl	x13, w13, w0, x2
  962284:	f85e81a0 	ldur	x0, [x13, #-24]
  962288:	b5000ea0 	cbnz	x0, 96245c <mmap_add_region_ctx+0x274>
  96228c:	a940ac48 	ldp	x8, x11, [x2, #8]
  962290:	b4000dab 	cbz	x11, 962444 <mmap_add_region_ctx+0x25c>
  962294:	aa0803e3 	mov	x3, x8
  962298:	aa0b03e9 	mov	x9, x11
  96229c:	aa0203e5 	mov	x5, x2
  9622a0:	cb0100ef 	sub	x15, x7, x1
  9622a4:	14000012 	b	9622ec <mmap_add_region_ctx+0x104>
  9622a8:	eb0a029f 	cmp	x20, x10
  9622ac:	8b0400c6 	add	x6, x6, x4
  9622b0:	fa4320e2 	ccmp	x7, x3, #0x2, cs  // cs = hs, nlast
  9622b4:	54000289 	b.ls	962304 <mmap_add_region_ctx+0x11c>  // b.plast
  9622b8:	eb06003f 	cmp	x1, x6
  9622bc:	1a9f97e6 	cset	w6, hi  // hi = pmore
  9622c0:	eb0402bf 	cmp	x21, x4
  9622c4:	1a9f27e0 	cset	w0, cc  // cc = lo, ul, last
  9622c8:	eb0a00ff 	cmp	x7, x10
  9622cc:	2a0000c6 	orr	w6, w6, w0
  9622d0:	fa439280 	ccmp	x20, x3, #0x0, ls  // ls = plast
  9622d4:	54000262 	b.cs	962320 <mmap_add_region_ctx+0x138>  // b.hs, b.nlast
  9622d8:	34000246 	cbz	w6, 962320 <mmap_add_region_ctx+0x138>
  9622dc:	f9401ca9 	ldr	x9, [x5, #56]
  9622e0:	9100a0a5 	add	x5, x5, #0x28
  9622e4:	b40002e9 	cbz	x9, 962340 <mmap_add_region_ctx+0x158>
  9622e8:	f94004a3 	ldr	x3, [x5, #8]
  9622ec:	d1000526 	sub	x6, x9, #0x1
  9622f0:	8b0300ca 	add	x10, x6, x3
  9622f4:	eb0a029f 	cmp	x20, x10
  9622f8:	fa4390e0 	ccmp	x7, x3, #0x0, ls  // ls = plast
  9622fc:	f94000a4 	ldr	x4, [x5]
  962300:	54fffd43 	b.cc	9622a8 <mmap_add_region_ctx+0xc0>  // b.lo, b.ul, b.last
  962304:	cb040064 	sub	x4, x3, x4
  962308:	eb0f009f 	cmp	x4, x15
  96230c:	540000a1 	b.ne	962320 <mmap_add_region_ctx+0x138>  // b.any
  962310:	eb09019f 	cmp	x12, x9
  962314:	fa4300e0 	ccmp	x7, x3, #0x0, eq  // eq = none
  962318:	54fffe21 	b.ne	9622dc <mmap_add_region_ctx+0xf4>  // b.any
  96231c:	d503201f 	nop
  962320:	a94153f3 	ldp	x19, x20, [sp, #16]
  962324:	12800001 	mov	w1, #0xffffffff            	// #-1
  962328:	a9425bf5 	ldp	x21, x22, [sp, #32]
  96232c:	f0000020 	adrp	x0, 969000 <vprintf+0x100>
  962330:	f9401bf7 	ldr	x23, [sp, #48]
  962334:	91228000 	add	x0, x0, #0x8a0
  962338:	a8c47bfd 	ldp	x29, x30, [sp], #64
  96233c:	140016eb 	b	967ee8 <tf_log>
  962340:	8b080163 	add	x3, x11, x8
  962344:	aa0203f3 	mov	x19, x2
  962348:	d1000460 	sub	x0, x3, #0x1
  96234c:	eb00029f 	cmp	x20, x0
  962350:	540007e9 	b.ls	96244c <mmap_add_region_ctx+0x264>  // b.plast
  962354:	d503201f 	nop
  962358:	9100a273 	add	x19, x19, #0x28
  96235c:	a940ae63 	ldp	x3, x11, [x19, #8]
  962360:	f100017f 	cmp	x11, #0x0
  962364:	8b030163 	add	x3, x11, x3
  962368:	1a9f07e0 	cset	w0, ne  // ne = any
  96236c:	d1000461 	sub	x1, x3, #0x1
  962370:	7100001f 	cmp	w0, #0x0
  962374:	fa541022 	ccmp	x1, x20, #0x2, ne  // ne = any
  962378:	54ffff03 	b.cc	962358 <mmap_add_region_ctx+0x170>  // b.lo, b.ul, b.last
  96237c:	eb0301df 	cmp	x14, x3
  962380:	fa4b0180 	ccmp	x12, x11, #0x0, eq  // eq = none
  962384:	7a408804 	ccmp	w0, #0x0, #0x4, hi  // hi = pmore
  962388:	54000120 	b.eq	9623ac <mmap_add_region_ctx+0x1c4>  // b.none
  96238c:	d503201f 	nop
  962390:	9100a273 	add	x19, x19, #0x28
  962394:	a9408e60 	ldp	x0, x3, [x19, #8]
  962398:	f100007f 	cmp	x3, #0x0
  96239c:	fa431180 	ccmp	x12, x3, #0x0, ne  // ne = any
  9623a0:	8b000063 	add	x3, x3, x0
  9623a4:	fa4e8060 	ccmp	x3, x14, #0x0, hi  // hi = pmore
  9623a8:	54ffff40 	b.eq	962390 <mmap_add_region_ctx+0x1a8>  // b.none
  9623ac:	eb0d005f 	cmp	x2, x13
  9623b0:	540000e2 	b.cs	9623cc <mmap_add_region_ctx+0x1e4>  // b.hs, b.nlast
  9623b4:	d503201f 	nop
  9623b8:	f9401c40 	ldr	x0, [x2, #56]
  9623bc:	9100a042 	add	x2, x2, #0x28
  9623c0:	f100001f 	cmp	x0, #0x0
  9623c4:	fa4211a0 	ccmp	x13, x2, #0x0, ne  // ne = any
  9623c8:	54ffff88 	b.hi	9623b8 <mmap_add_region_ctx+0x1d0>  // b.pmore
  9623cc:	aa1303e1 	mov	x1, x19
  9623d0:	cb130042 	sub	x2, x2, x19
  9623d4:	9100a260 	add	x0, x19, #0x28
  9623d8:	94001a76 	bl	968db0 <memmove>
  9623dc:	f94002c0 	ldr	x0, [x22]
  9623e0:	f9000260 	str	x0, [x19]
  9623e4:	f94022e0 	ldr	x0, [x23, #64]
  9623e8:	f94006c1 	ldr	x1, [x22, #8]
  9623ec:	f9000661 	str	x1, [x19, #8]
  9623f0:	eb15001f 	cmp	x0, x21
  9623f4:	f9400ac0 	ldr	x0, [x22, #16]
  9623f8:	f9000a60 	str	x0, [x19, #16]
  9623fc:	f9400ec0 	ldr	x0, [x22, #24]
  962400:	f9000e60 	str	x0, [x19, #24]
  962404:	f94012c0 	ldr	x0, [x22, #32]
  962408:	f9001260 	str	x0, [x19, #32]
  96240c:	54000042 	b.cs	962414 <mmap_add_region_ctx+0x22c>  // b.hs, b.nlast
  962410:	f90022f5 	str	x21, [x23, #64]
  962414:	f94026e0 	ldr	x0, [x23, #72]
  962418:	eb14001f 	cmp	x0, x20
  96241c:	54000042 	b.cs	962424 <mmap_add_region_ctx+0x23c>  // b.hs, b.nlast
  962420:	f90026f4 	str	x20, [x23, #72]
  962424:	a94153f3 	ldp	x19, x20, [sp, #16]
  962428:	a9425bf5 	ldp	x21, x22, [sp, #32]
  96242c:	f9401bf7 	ldr	x23, [sp, #48]
  962430:	a8c47bfd 	ldp	x29, x30, [sp], #64
  962434:	d65f03c0 	ret
  962438:	12800421 	mov	w1, #0xffffffde            	// #-34
  96243c:	a94153f3 	ldp	x19, x20, [sp, #16]
  962440:	17ffffba 	b	962328 <mmap_add_region_ctx+0x140>
  962444:	aa0203f3 	mov	x19, x2
  962448:	17ffffe1 	b	9623cc <mmap_add_region_ctx+0x1e4>
  96244c:	52800020 	mov	w0, #0x1                   	// #1
  962450:	17ffffcb 	b	96237c <mmap_add_region_ctx+0x194>
  962454:	128002a1 	mov	w1, #0xffffffea            	// #-22
  962458:	17ffffb4 	b	962328 <mmap_add_region_ctx+0x140>
  96245c:	12800161 	mov	w1, #0xfffffff4            	// #-12
  962460:	a94153f3 	ldp	x19, x20, [sp, #16]
  962464:	17ffffb1 	b	962328 <mmap_add_region_ctx+0x140>

0000000000962468 <mmap_add_ctx>:
  962468:	a9be7bfd 	stp	x29, x30, [sp, #-32]!
  96246c:	910003fd 	mov	x29, sp
  962470:	a90153f3 	stp	x19, x20, [sp, #16]
  962474:	aa0003f4 	mov	x20, x0
  962478:	f9401020 	ldr	x0, [x1, #32]
  96247c:	b4000120 	cbz	x0, 9624a0 <mmap_add_ctx+0x38>
  962480:	aa0103f3 	mov	x19, x1
  962484:	d503201f 	nop
  962488:	aa1303e1 	mov	x1, x19
  96248c:	9100a273 	add	x19, x19, #0x28
  962490:	aa1403e0 	mov	x0, x20
  962494:	97ffff55 	bl	9621e8 <mmap_add_region_ctx>
  962498:	f9401261 	ldr	x1, [x19, #32]
  96249c:	b5ffff61 	cbnz	x1, 962488 <mmap_add_ctx+0x20>
  9624a0:	a94153f3 	ldp	x19, x20, [sp, #16]
  9624a4:	a8c27bfd 	ldp	x29, x30, [sp], #32
  9624a8:	d65f03c0 	ret
  9624ac:	00000000 	.inst	0x00000000 ; undefined

00000000009624b0 <init_xlat_tables_ctx>:
  9624b0:	a9bc7bfd 	stp	x29, x30, [sp, #-64]!
  9624b4:	910003fd 	mov	x29, sp
  9624b8:	a90153f3 	stp	x19, x20, [sp, #16]
  9624bc:	aa0003f3 	mov	x19, x0
  9624c0:	f9400814 	ldr	x20, [x0, #16]
  9624c4:	aa1403e0 	mov	x0, x20
  9624c8:	94000048 	bl	9625e8 <xlat_mmap_print>
  9624cc:	b9403a64 	ldr	w4, [x19, #56]
  9624d0:	340000e4 	cbz	w4, 9624ec <init_xlat_tables_ctx+0x3c>
  9624d4:	f9401a61 	ldr	x1, [x19, #48]
  9624d8:	d2800000 	mov	x0, #0x0                   	// #0
  9624dc:	f820783f 	str	xzr, [x1, x0, lsl #3]
  9624e0:	91000400 	add	x0, x0, #0x1
  9624e4:	6b00009f 	cmp	w4, w0
  9624e8:	54ffffa8 	b.hi	9624dc <init_xlat_tables_ctx+0x2c>  // b.pmore
  9624ec:	b9402a60 	ldr	w0, [x19, #40]
  9624f0:	7100001f 	cmp	w0, #0x0
  9624f4:	540001ed 	b.le	962530 <init_xlat_tables_ctx+0x80>
  9624f8:	f9401261 	ldr	x1, [x19, #32]
  9624fc:	51000400 	sub	w0, w0, #0x1
  962500:	52820003 	mov	w3, #0x1000                	// #4096
  962504:	91400822 	add	x2, x1, #0x2, lsl #12
  962508:	91400421 	add	x1, x1, #0x1, lsl #12
  96250c:	9ba30802 	umaddl	x2, w0, w3, x2
  962510:	d1400420 	sub	x0, x1, #0x1, lsl #12
  962514:	d503201f 	nop
  962518:	f800841f 	str	xzr, [x0], #8
  96251c:	eb00003f 	cmp	x1, x0
  962520:	54ffffc1 	b.ne	962518 <init_xlat_tables_ctx+0x68>  // b.any
  962524:	91400421 	add	x1, x1, #0x1, lsl #12
  962528:	eb02003f 	cmp	x1, x2
  96252c:	54ffff21 	b.ne	962510 <init_xlat_tables_ctx+0x60>  // b.any
  962530:	f9400a80 	ldr	x0, [x20, #16]
  962534:	b40003e0 	cbz	x0, 9625b0 <init_xlat_tables_ctx+0x100>
  962538:	a9025bf5 	stp	x21, x22, [sp, #32]
  96253c:	f9001bf7 	str	x23, [sp, #48]
  962540:	1400000a 	b	962568 <init_xlat_tables_ctx+0xb8>
  962544:	a9408e81 	ldp	x1, x3, [x20, #8]
  962548:	8b030020 	add	x0, x1, x3
  96254c:	d1000400 	sub	x0, x0, #0x1
  962550:	eb15001f 	cmp	x0, x21
  962554:	540003a1 	b.ne	9625c8 <init_xlat_tables_ctx+0x118>  // b.any
  962558:	f9401e80 	ldr	x0, [x20, #56]
  96255c:	9100a294 	add	x20, x20, #0x28
  962560:	b4000240 	cbz	x0, 9625a8 <init_xlat_tables_ctx+0xf8>
  962564:	b9403a64 	ldr	w4, [x19, #56]
  962568:	b9405265 	ldr	w5, [x19, #80]
  96256c:	aa1403e1 	mov	x1, x20
  962570:	f9401a63 	ldr	x3, [x19, #48]
  962574:	d2800002 	mov	x2, #0x0                   	// #0
  962578:	aa1303e0 	mov	x0, x19
  96257c:	97fffe71 	bl	961f40 <xlat_tables_map_region>
  962580:	b9403a77 	ldr	w23, [x19, #56]
  962584:	aa0003f5 	mov	x21, x0
  962588:	f9401a76 	ldr	x22, [x19, #48]
  96258c:	97fffdd3 	bl	961cd8 <is_dcache_enabled>
  962590:	72001c1f 	tst	w0, #0xff
  962594:	54fffd80 	b.eq	962544 <init_xlat_tables_ctx+0x94>  // b.none
  962598:	d37d7ee1 	ubfiz	x1, x23, #3, #32
  96259c:	aa1603e0 	mov	x0, x22
  9625a0:	94001959 	bl	968b04 <clean_dcache_range>
  9625a4:	17ffffe8 	b	962544 <init_xlat_tables_ctx+0x94>
  9625a8:	a9425bf5 	ldp	x21, x22, [sp, #32]
  9625ac:	f9401bf7 	ldr	x23, [sp, #48]
  9625b0:	52800020 	mov	w0, #0x1                   	// #1
  9625b4:	39015260 	strb	w0, [x19, #84]
  9625b8:	aa1303e0 	mov	x0, x19
  9625bc:	a94153f3 	ldp	x19, x20, [sp, #16]
  9625c0:	a8c47bfd 	ldp	x29, x30, [sp], #64
  9625c4:	1400000b 	b	9625f0 <xlat_tables_print>
  9625c8:	b9401a84 	ldr	w4, [x20, #24]
  9625cc:	f0000020 	adrp	x0, 969000 <vprintf+0x100>
  9625d0:	f9400282 	ldr	x2, [x20]
  9625d4:	91234000 	add	x0, x0, #0x8d0
  9625d8:	94001644 	bl	967ee8 <tf_log>
  9625dc:	940016b3 	bl	9680a8 <console_flush>
  9625e0:	94001930 	bl	968aa0 <do_panic>
  9625e4:	00000000 	.inst	0x00000000 ; undefined

00000000009625e8 <xlat_mmap_print>:
  9625e8:	d65f03c0 	ret
  9625ec:	00000000 	.inst	0x00000000 ; undefined

00000000009625f0 <xlat_tables_print>:
  9625f0:	d65f03c0 	ret
  9625f4:	00000000 	.inst	0x00000000 ; undefined

00000000009625f8 <waiting_dvfs>:
  9625f8:	a9be7bfd 	stp	x29, x30, [sp, #-32]!
  9625fc:	910003fd 	mov	x29, sp
  962600:	a90153f3 	stp	x19, x20, [sp, #16]
  962604:	d53800b3 	mrs	x19, mpidr_el1
  962608:	940009bc 	bl	964cf8 <plat_ic_acknowledge_interrupt>
  96260c:	12001e73 	and	w19, w19, #0xff
  962610:	710ff41f 	cmp	w0, #0x3fd
  962614:	540003a9 	b.ls	962688 <waiting_dvfs+0x90>  // b.plast
  962618:	f0000074 	adrp	x20, 971000 <imx_gicv3_ctx+0x24d0>
  96261c:	910f6294 	add	x20, x20, #0x3d8
  962620:	aa1403e0 	mov	x0, x20
  962624:	94001829 	bl	9686c8 <spin_lock>
  962628:	90000060 	adrp	x0, 96e000 <tf_mmap+0x120>
  96262c:	531d7273 	lsl	w19, w19, #3
  962630:	52800021 	mov	w1, #0x1                   	// #1
  962634:	b9418802 	ldr	w2, [x0, #392]
  962638:	1ad32021 	lsl	w1, w1, w19
  96263c:	2a020021 	orr	w1, w1, w2
  962640:	b9018801 	str	w1, [x0, #392]
  962644:	d5033f9f 	dsb	sy
  962648:	aa1403e0 	mov	x0, x20
  96264c:	94001827 	bl	9686e8 <spin_unlock>
  962650:	b0000041 	adrp	x1, 96b000 <__RO_END__>
  962654:	39465020 	ldrb	w0, [x1, #404]
  962658:	72001c1f 	tst	w0, #0xff
  96265c:	540000e0 	b.eq	962678 <waiting_dvfs+0x80>  // b.none
  962660:	91065021 	add	x1, x1, #0x194
  962664:	d503201f 	nop
  962668:	d503205f 	wfe
  96266c:	39400020 	ldrb	w0, [x1]
  962670:	72001c1f 	tst	w0, #0xff
  962674:	54ffffa1 	b.ne	962668 <waiting_dvfs+0x70>  // b.any
  962678:	d2800000 	mov	x0, #0x0                   	// #0
  96267c:	a94153f3 	ldp	x19, x20, [sp, #16]
  962680:	a8c27bfd 	ldp	x29, x30, [sp], #32
  962684:	d65f03c0 	ret
  962688:	940009a0 	bl	964d08 <plat_ic_end_of_interrupt>
  96268c:	17ffffe3 	b	962618 <waiting_dvfs+0x20>

0000000000962690 <dram_umctl2_init>:
  962690:	b9400802 	ldr	w2, [x0, #8]
  962694:	f9400001 	ldr	x1, [x0]
  962698:	34000122 	cbz	w2, 9626bc <dram_umctl2_init+0x2c>
  96269c:	52800002 	mov	w2, #0x0                   	// #0
  9626a0:	b9400424 	ldr	w4, [x1, #4]
  9626a4:	11000442 	add	w2, w2, #0x1
  9626a8:	b8408423 	ldr	w3, [x1], #8
  9626ac:	b9000064 	str	w4, [x3]
  9626b0:	b9400803 	ldr	w3, [x0, #8]
  9626b4:	6b02007f 	cmp	w3, w2
  9626b8:	54ffff48 	b.hi	9626a0 <dram_umctl2_init+0x10>  // b.pmore
  9626bc:	d2800500 	mov	x0, #0x28                  	// #40
  9626c0:	f2a7a800 	movk	x0, #0x3d40, lsl #16
  9626c4:	b900001f 	str	wzr, [x0]
  9626c8:	d65f03c0 	ret
  9626cc:	00000000 	.inst	0x00000000 ; undefined

00000000009626d0 <dram_phy_init>:
  9626d0:	b9401801 	ldr	w1, [x0, #24]
  9626d4:	f9400802 	ldr	x2, [x0, #16]
  9626d8:	340001a1 	cbz	w1, 96270c <dram_phy_init+0x3c>
  9626dc:	52800003 	mov	w3, #0x0                   	// #0
  9626e0:	52a1e005 	mov	w5, #0xf000000             	// #251658240
  9626e4:	d503201f 	nop
  9626e8:	b9400444 	ldr	w4, [x2, #4]
  9626ec:	11000463 	add	w3, w3, #0x1
  9626f0:	b8408441 	ldr	w1, [x2], #8
  9626f4:	0b050021 	add	w1, w1, w5
  9626f8:	531e7421 	lsl	w1, w1, #2
  9626fc:	b9000024 	str	w4, [x1]
  962700:	b9401801 	ldr	w1, [x0, #24]
  962704:	6b03003f 	cmp	w1, w3
  962708:	54ffff08 	b.hi	9626e8 <dram_phy_init+0x18>  // b.pmore
  96270c:	b9403801 	ldr	w1, [x0, #56]
  962710:	f9401802 	ldr	x2, [x0, #48]
  962714:	34000181 	cbz	w1, 962744 <dram_phy_init+0x74>
  962718:	52800003 	mov	w3, #0x0                   	// #0
  96271c:	52a1e005 	mov	w5, #0xf000000             	// #251658240
  962720:	b9400444 	ldr	w4, [x2, #4]
  962724:	11000463 	add	w3, w3, #0x1
  962728:	b8408441 	ldr	w1, [x2], #8
  96272c:	0b050021 	add	w1, w1, w5
  962730:	531e7421 	lsl	w1, w1, #2
  962734:	b9000024 	str	w4, [x1]
  962738:	b9403801 	ldr	w1, [x0, #56]
  96273c:	6b03003f 	cmp	w1, w3
  962740:	54ffff08 	b.hi	962720 <dram_phy_init+0x50>  // b.pmore
  962744:	b9404801 	ldr	w1, [x0, #72]
  962748:	f9402002 	ldr	x2, [x0, #64]
  96274c:	34000181 	cbz	w1, 96277c <dram_phy_init+0xac>
  962750:	52800003 	mov	w3, #0x0                   	// #0
  962754:	52a1e005 	mov	w5, #0xf000000             	// #251658240
  962758:	b9400444 	ldr	w4, [x2, #4]
  96275c:	11000463 	add	w3, w3, #0x1
  962760:	b8408441 	ldr	w1, [x2], #8
  962764:	0b050021 	add	w1, w1, w5
  962768:	531e7421 	lsl	w1, w1, #2
  96276c:	b9000024 	str	w4, [x1]
  962770:	b9404801 	ldr	w1, [x0, #72]
  962774:	6b03003f 	cmp	w1, w3
  962778:	54ffff08 	b.hi	962758 <dram_phy_init+0x88>  // b.pmore
  96277c:	d65f03c0 	ret

0000000000962780 <dram_info_init>:
  962780:	a9bd7bfd 	stp	x29, x30, [sp, #-48]!
  962784:	d2a7a801 	mov	x1, #0x3d400000            	// #1027604480
  962788:	d2803602 	mov	x2, #0x1b0                 	// #432
  96278c:	910003fd 	mov	x29, sp
  962790:	b9400021 	ldr	w1, [x1]
  962794:	f2a7a802 	movk	x2, #0x3d40, lsl #16
  962798:	f90013f5 	str	x21, [sp, #32]
  96279c:	f0000075 	adrp	x21, 971000 <imx_gicv3_ctx+0x24d0>
  9627a0:	12001423 	and	w3, w1, #0x3f
  9627a4:	a90153f3 	stp	x19, x20, [sp, #16]
  9627a8:	d3586421 	ubfx	x1, x1, #24, #2
  9627ac:	b903e2a3 	str	w3, [x21, #992]
  9627b0:	910f82b3 	add	x19, x21, #0x3e0
  9627b4:	71000c3f 	cmp	w1, #0x3
  9627b8:	f0000027 	adrp	x7, 969000 <vprintf+0x100>
  9627bc:	b9400054 	ldr	w20, [x2]
  9627c0:	1a9f17e1 	cset	w1, eq  // eq = none
  9627c4:	52801b82 	mov	w2, #0xdc                  	// #220
  9627c8:	912480e7 	add	x7, x7, #0x920
  9627cc:	aa1303e6 	mov	x6, x19
  9627d0:	91010264 	add	x4, x19, #0x40
  9627d4:	91028268 	add	x8, x19, #0xa0
  9627d8:	11000421 	add	w1, w1, #0x1
  9627dc:	12000e94 	and	w20, w20, #0xf
  9627e0:	72a7a802 	movk	w2, #0x3d40, lsl #16
  9627e4:	b9000661 	str	w1, [x19, #4]
  9627e8:	2901d274 	stp	w20, w20, [x19, #12]
  9627ec:	d1008081 	sub	x1, x4, #0x20
  9627f0:	aa0703e3 	mov	x3, x7
  9627f4:	2a0203e2 	mov	w2, w2
  9627f8:	91001063 	add	x3, x3, #0x4
  9627fc:	b9400042 	ldr	w2, [x2]
  962800:	12003c45 	and	w5, w2, #0xffff
  962804:	53107c42 	lsr	w2, w2, #16
  962808:	29001422 	stp	w2, w5, [x1]
  96280c:	91002021 	add	x1, x1, #0x8
  962810:	eb01009f 	cmp	x4, x1
  962814:	54000060 	b.eq	962820 <dram_info_init+0xa0>  // b.none
  962818:	b9400062 	ldr	w2, [x3]
  96281c:	17fffff6 	b	9627f4 <dram_info_init+0x74>
  962820:	91008084 	add	x4, x4, #0x20
  962824:	910040e7 	add	x7, x7, #0x10
  962828:	eb04011f 	cmp	x8, x4
  96282c:	54000060 	b.eq	962838 <dram_info_init+0xb8>  // b.none
  962830:	b94000e2 	ldr	w2, [x7]
  962834:	17ffffee 	b	9627ec <dram_info_init+0x6c>
  962838:	91013003 	add	x3, x0, #0x4c
  96283c:	d2800001 	mov	x1, #0x0                   	// #0
  962840:	f9000e60 	str	x0, [x19, #24]
  962844:	b8617862 	ldr	w2, [x3, x1, lsl #2]
  962848:	34000b02 	cbz	w2, 9629a8 <dram_info_init+0x228>
  96284c:	91000421 	add	x1, x1, #0x1
  962850:	f100103f 	cmp	x1, #0x4
  962854:	54ffff81 	b.ne	962844 <dram_info_init+0xc4>  // b.any
  962858:	2a0103e7 	mov	w7, w1
  96285c:	52800068 	mov	w8, #0x3                   	// #3
  962860:	b9000a61 	str	w1, [x19, #8]
  962864:	b943e2a9 	ldr	w9, [x21, #992]
  962868:	d2822102 	mov	x2, #0x1108                	// #4360
  96286c:	d2801e8d 	mov	x13, #0xf4                  	// #244
  962870:	d280210c 	mov	x12, #0x108                 	// #264
  962874:	529fdf0b 	mov	w11, #0xfef8                	// #65272
  962878:	5280248a 	mov	w10, #0x124                 	// #292
  96287c:	f2a7a802 	movk	x2, #0x3d40, lsl #16
  962880:	52800001 	mov	w1, #0x0                   	// #0
  962884:	f2a7a80d 	movk	x13, #0x3d40, lsl #16
  962888:	f2a7a80c 	movk	x12, #0x3d40, lsl #16
  96288c:	72b857eb 	movk	w11, #0xc2bf, lsl #16
  962890:	72a7a80a 	movk	w10, #0x3d40, lsl #16
  962894:	340004a1 	cbz	w1, 962928 <dram_info_init+0x1a8>
  962898:	0b0b0043 	add	w3, w2, w11
  96289c:	aa0203e5 	mov	x5, x2
  9628a0:	d1005044 	sub	x4, x2, #0x14
  9628a4:	7100813f 	cmp	w9, #0x20
  9628a8:	540004a0 	b.eq	96293c <dram_info_init+0x1bc>  // b.none
  9628ac:	b94000a5 	ldr	w5, [x5]
  9628b0:	0b0a0063 	add	w3, w3, w10
  9628b4:	b90080c5 	str	w5, [x6, #128]
  9628b8:	b9400063 	ldr	w3, [x3]
  9628bc:	b90084c3 	str	w3, [x6, #132]
  9628c0:	b9400083 	ldr	w3, [x4]
  9628c4:	11000421 	add	w1, w1, #0x1
  9628c8:	b90088c3 	str	w3, [x6, #136]
  9628cc:	6b0100ff 	cmp	w7, w1
  9628d0:	91400442 	add	x2, x2, #0x1, lsl #12
  9628d4:	910030c6 	add	x6, x6, #0xc
  9628d8:	54fffde8 	b.hi	962894 <dram_info_init+0x114>  // b.pmore
  9628dc:	8b28c803 	add	x3, x0, w8, sxtw #2
  9628e0:	90000001 	adrp	x1, 962000 <xlat_tables_map_region+0xc0>
  9628e4:	52800042 	mov	w2, #0x2                   	// #2
  9628e8:	9117e021 	add	x1, x1, #0x5f8
  9628ec:	52800020 	mov	w0, #0x1                   	// #1
  9628f0:	b9404c63 	ldr	w3, [x3, #76]
  9628f4:	710a647f 	cmp	w3, #0x299
  9628f8:	1a9f87e3 	cset	w3, ls  // ls = plast
  9628fc:	39005263 	strb	w3, [x19, #20]
  962900:	94000a18 	bl	965160 <register_interrupt_type_handler>
  962904:	350005c0 	cbnz	w0, 9629bc <dram_info_init+0x23c>
  962908:	b943e2a0 	ldr	w0, [x21, #992]
  96290c:	7100801f 	cmp	w0, #0x20
  962910:	540002c0 	b.eq	962968 <dram_info_init+0x1e8>  // b.none
  962914:	350001b4 	cbnz	w20, 962948 <dram_info_init+0x1c8>
  962918:	a94153f3 	ldp	x19, x20, [sp, #16]
  96291c:	f94013f5 	ldr	x21, [sp, #32]
  962920:	a8c37bfd 	ldp	x29, x30, [sp], #48
  962924:	d65f03c0 	ret
  962928:	aa0d03e4 	mov	x4, x13
  96292c:	aa0c03e5 	mov	x5, x12
  962930:	7100813f 	cmp	w9, #0x20
  962934:	52800003 	mov	w3, #0x0                   	// #0
  962938:	54fffba1 	b.ne	9628ac <dram_info_init+0x12c>  // b.any
  96293c:	b94000a3 	ldr	w3, [x5]
  962940:	b90080c3 	str	w3, [x6, #128]
  962944:	17ffffdf 	b	9628c0 <dram_info_init+0x140>
  962948:	d2800040 	mov	x0, #0x2                   	// #2
  96294c:	940018c1 	bl	968c50 <dcsw_op_all>
  962950:	aa1303e0 	mov	x0, x19
  962954:	52800001 	mov	w1, #0x0                   	// #0
  962958:	a94153f3 	ldp	x19, x20, [sp, #16]
  96295c:	f94013f5 	ldr	x21, [sp, #32]
  962960:	a8c37bfd 	ldp	x29, x30, [sp], #48
  962964:	140002b3 	b	963430 <ddr4_swffc>
  962968:	34fffd94 	cbz	w20, 962918 <dram_info_init+0x198>
  96296c:	b0000054 	adrp	x20, 96b000 <__RO_END__>
  962970:	d2800040 	mov	x0, #0x2                   	// #2
  962974:	940018b7 	bl	968c50 <dcsw_op_all>
  962978:	b9419281 	ldr	w1, [x20, #400]
  96297c:	aa1303e0 	mov	x0, x19
  962980:	52800002 	mov	w2, #0x0                   	// #0
  962984:	940002fd 	bl	963578 <lpddr4_swffc>
  962988:	b9419280 	ldr	w0, [x20, #400]
  96298c:	f94013f5 	ldr	x21, [sp, #32]
  962990:	2a2003e0 	mvn	w0, w0
  962994:	12000000 	and	w0, w0, #0x1
  962998:	b9019280 	str	w0, [x20, #400]
  96299c:	a94153f3 	ldp	x19, x20, [sp, #16]
  9629a0:	a8c37bfd 	ldp	x29, x30, [sp], #48
  9629a4:	d65f03c0 	ret
  9629a8:	b9000a61 	str	w1, [x19, #8]
  9629ac:	2a0103e7 	mov	w7, w1
  9629b0:	51000428 	sub	w8, w1, #0x1
  9629b4:	34fff941 	cbz	w1, 9628dc <dram_info_init+0x15c>
  9629b8:	17ffffab 	b	962864 <dram_info_init+0xe4>
  9629bc:	940015bb 	bl	9680a8 <console_flush>
  9629c0:	94001838 	bl	968aa0 <do_panic>
  9629c4:	00000000 	.inst	0x00000000 ; undefined

00000000009629c8 <dram_dvfs_get_freq_info>:
  9629c8:	f100083f 	cmp	x1, #0x2
  9629cc:	540004c0 	b.eq	962a64 <dram_dvfs_get_freq_info+0x9c>  // b.none
  9629d0:	540001a8 	b.hi	962a04 <dram_dvfs_get_freq_info+0x3c>  // b.pmore
  9629d4:	b4000321 	cbz	x1, 962a38 <dram_dvfs_get_freq_info+0x70>
  9629d8:	f0000061 	adrp	x1, 971000 <imx_gicv3_ctx+0x24d0>
  9629dc:	910f8021 	add	x1, x1, #0x3e0
  9629e0:	39405022 	ldrb	w2, [x1, #20]
  9629e4:	f9400c21 	ldr	x1, [x1, #24]
  9629e8:	b9405021 	ldr	w1, [x1, #80]
  9629ec:	340001e2 	cbz	w2, 962a28 <dram_dvfs_get_freq_info+0x60>
  9629f0:	d2800042 	mov	x2, #0x2                   	// #2
  9629f4:	d2800083 	mov	x3, #0x4                   	// #4
  9629f8:	a9000801 	stp	x1, x2, [x0]
  9629fc:	a9010c02 	stp	x2, x3, [x0, #16]
  962a00:	d65f03c0 	ret
  962a04:	f1000c3f 	cmp	x1, #0x3
  962a08:	54000281 	b.ne	962a58 <dram_dvfs_get_freq_info+0x90>  // b.any
  962a0c:	f0000061 	adrp	x1, 971000 <imx_gicv3_ctx+0x24d0>
  962a10:	d2800022 	mov	x2, #0x1                   	// #1
  962a14:	f941fc21 	ldr	x1, [x1, #1016]
  962a18:	b9405821 	ldr	w1, [x1, #88]
  962a1c:	a9000801 	stp	x1, x2, [x0]
  962a20:	a9017c1f 	stp	xzr, xzr, [x0, #16]
  962a24:	d65f03c0 	ret
  962a28:	d2800022 	mov	x2, #0x1                   	// #1
  962a2c:	a9000801 	stp	x1, x2, [x0]
  962a30:	a9017c1f 	stp	xzr, xzr, [x0, #16]
  962a34:	d65f03c0 	ret
  962a38:	f0000061 	adrp	x1, 971000 <imx_gicv3_ctx+0x24d0>
  962a3c:	d28000a2 	mov	x2, #0x5                   	// #5
  962a40:	d2800023 	mov	x3, #0x1                   	// #1
  962a44:	f941fc21 	ldr	x1, [x1, #1016]
  962a48:	b9404c21 	ldr	w1, [x1, #76]
  962a4c:	a9000c01 	stp	x1, x3, [x0]
  962a50:	a901081f 	stp	xzr, x2, [x0, #16]
  962a54:	d65f03c0 	ret
  962a58:	92800041 	mov	x1, #0xfffffffffffffffd    	// #-3
  962a5c:	f9000001 	str	x1, [x0]
  962a60:	d65f03c0 	ret
  962a64:	f0000062 	adrp	x2, 971000 <imx_gicv3_ctx+0x24d0>
  962a68:	910f8042 	add	x2, x2, #0x3e0
  962a6c:	39405043 	ldrb	w3, [x2, #20]
  962a70:	f9400c42 	ldr	x2, [x2, #24]
  962a74:	b9405442 	ldr	w2, [x2, #84]
  962a78:	340000a3 	cbz	w3, 962a8c <dram_dvfs_get_freq_info+0xc4>
  962a7c:	d2800063 	mov	x3, #0x3                   	// #3
  962a80:	a9000402 	stp	x2, x1, [x0]
  962a84:	a9010c03 	stp	x3, x3, [x0, #16]
  962a88:	d65f03c0 	ret
  962a8c:	d2800021 	mov	x1, #0x1                   	// #1
  962a90:	a9000402 	stp	x2, x1, [x0]
  962a94:	a9017c1f 	stp	xzr, xzr, [x0, #16]
  962a98:	d65f03c0 	ret
  962a9c:	00000000 	.inst	0x00000000 ; undefined

0000000000962aa0 <dram_dvfs_handler>:
  962aa0:	a9bb7bfd 	stp	x29, x30, [sp, #-80]!
  962aa4:	910003fd 	mov	x29, sp
  962aa8:	a9025bf5 	stp	x21, x22, [sp, #32]
  962aac:	a90363f7 	stp	x23, x24, [sp, #48]
  962ab0:	aa0103f8 	mov	x24, x1
  962ab4:	d53800b5 	mrs	x21, mpidr_el1
  962ab8:	f100405f 	cmp	x2, #0x10
  962abc:	54000800 	b.eq	962bbc <dram_dvfs_handler+0x11c>  // b.none
  962ac0:	a90153f3 	stp	x19, x20, [sp, #16]
  962ac4:	aa0303f7 	mov	x23, x3
  962ac8:	aa0203f4 	mov	x20, x2
  962acc:	f100445f 	cmp	x2, #0x11
  962ad0:	540009a0 	b.eq	962c04 <dram_dvfs_handler+0x164>  // b.none
  962ad4:	f1000c5f 	cmp	x2, #0x3
  962ad8:	540005c8 	b.hi	962b90 <dram_dvfs_handler+0xf0>  // b.pmore
  962adc:	b0000056 	adrp	x22, 96b000 <__RO_END__>
  962ae0:	52800020 	mov	w0, #0x1                   	// #1
  962ae4:	12001eb5 	and	w21, w21, #0xff
  962ae8:	a9046bf9 	stp	x25, x26, [sp, #64]
  962aec:	2a0303fa 	mov	w26, w3
  962af0:	390652c0 	strb	w0, [x22, #404]
  962af4:	d5033f9f 	dsb	sy
  962af8:	d2800013 	mov	x19, #0x0                   	// #0
  962afc:	52800039 	mov	w25, #0x1                   	// #1
  962b00:	531d7260 	lsl	w0, w19, #3
  962b04:	6b1302bf 	cmp	w21, w19
  962b08:	54000080 	b.eq	962b18 <dram_dvfs_handler+0x78>  // b.none
  962b0c:	1ac02320 	lsl	w0, w25, w0
  962b10:	6a1a001f 	tst	w0, w26
  962b14:	540004c1 	b.ne	962bac <dram_dvfs_handler+0x10c>  // b.any
  962b18:	91000673 	add	x19, x19, #0x1
  962b1c:	f100127f 	cmp	x19, #0x4
  962b20:	54ffff01 	b.ne	962b00 <dram_dvfs_handler+0x60>  // b.any
  962b24:	531d72b5 	lsl	w21, w21, #3
  962b28:	52800022 	mov	w2, #0x1                   	// #1
  962b2c:	90000073 	adrp	x19, 96e000 <tf_mmap+0x120>
  962b30:	91062263 	add	x3, x19, #0x188
  962b34:	1ad52042 	lsl	w2, w2, w21
  962b38:	0a2202e2 	bic	w2, w23, w2
  962b3c:	d503201f 	nop
  962b40:	b9400060 	ldr	w0, [x3]
  962b44:	6b02001f 	cmp	w0, w2
  962b48:	54ffffc1 	b.ne	962b40 <dram_dvfs_handler+0xa0>  // b.any
  962b4c:	d2800040 	mov	x0, #0x2                   	// #2
  962b50:	94001840 	bl	968c50 <dcsw_op_all>
  962b54:	f0000061 	adrp	x1, 971000 <imx_gicv3_ctx+0x24d0>
  962b58:	910f8035 	add	x21, x1, #0x3e0
  962b5c:	b943e020 	ldr	w0, [x1, #992]
  962b60:	7100801f 	cmp	w0, #0x20
  962b64:	540003c0 	b.eq	962bdc <dram_dvfs_handler+0x13c>  // b.none
  962b68:	2a1403e1 	mov	w1, w20
  962b6c:	aa1503e0 	mov	x0, x21
  962b70:	94000230 	bl	963430 <ddr4_swffc>
  962b74:	390652df 	strb	wzr, [x22, #404]
  962b78:	b9018a7f 	str	wzr, [x19, #392]
  962b7c:	b9000eb4 	str	w20, [x21, #12]
  962b80:	d5033f9f 	dsb	sy
  962b84:	d503209f 	sev
  962b88:	d5033fdf 	isb
  962b8c:	a9446bf9 	ldp	x25, x26, [sp, #64]
  962b90:	2a1803e0 	mov	w0, w24
  962b94:	a94153f3 	ldp	x19, x20, [sp, #16]
  962b98:	f900031f 	str	xzr, [x24]
  962b9c:	a9425bf5 	ldp	x21, x22, [sp, #32]
  962ba0:	a94363f7 	ldp	x23, x24, [sp, #48]
  962ba4:	a8c57bfd 	ldp	x29, x30, [sp], #80
  962ba8:	d65f03c0 	ret
  962bac:	aa1303e1 	mov	x1, x19
  962bb0:	52800100 	mov	w0, #0x8                   	// #8
  962bb4:	9400086d 	bl	964d68 <plat_ic_raise_el3_sgi>
  962bb8:	17ffffd8 	b	962b18 <dram_dvfs_handler+0x78>
  962bbc:	f0000061 	adrp	x1, 971000 <imx_gicv3_ctx+0x24d0>
  962bc0:	2a1803e0 	mov	w0, w24
  962bc4:	a9425bf5 	ldp	x21, x22, [sp, #32]
  962bc8:	b943e821 	ldr	w1, [x1, #1000]
  962bcc:	f9000301 	str	x1, [x24]
  962bd0:	a94363f7 	ldp	x23, x24, [sp, #48]
  962bd4:	a8c57bfd 	ldp	x29, x30, [sp], #80
  962bd8:	d65f03c0 	ret
  962bdc:	b0000057 	adrp	x23, 96b000 <__RO_END__>
  962be0:	aa1503e0 	mov	x0, x21
  962be4:	2a1403e2 	mov	w2, w20
  962be8:	b94192e1 	ldr	w1, [x23, #400]
  962bec:	94000263 	bl	963578 <lpddr4_swffc>
  962bf0:	b94192e0 	ldr	w0, [x23, #400]
  962bf4:	2a2003e0 	mvn	w0, w0
  962bf8:	12000000 	and	w0, w0, #0x1
  962bfc:	b90192e0 	str	w0, [x23, #400]
  962c00:	17ffffdd 	b	962b74 <dram_dvfs_handler+0xd4>
  962c04:	aa1803e0 	mov	x0, x24
  962c08:	aa0303e1 	mov	x1, x3
  962c0c:	a94153f3 	ldp	x19, x20, [sp, #16]
  962c10:	a9425bf5 	ldp	x21, x22, [sp, #32]
  962c14:	a94363f7 	ldp	x23, x24, [sp, #48]
  962c18:	a8c57bfd 	ldp	x29, x30, [sp], #80
  962c1c:	17ffff6b 	b	9629c8 <dram_dvfs_get_freq_info>

0000000000962c20 <dram_pll_init>:
  962c20:	d2800a01 	mov	x1, #0x50                  	// #80
  962c24:	7119001f 	cmp	w0, #0x640
  962c28:	f2a606c1 	movk	x1, #0x3036, lsl #16
  962c2c:	b9400022 	ldr	w2, [x1]
  962c30:	32100042 	orr	w2, w2, #0x10000
  962c34:	b9000022 	str	w2, [x1]
  962c38:	b9400022 	ldr	w2, [x1]
  962c3c:	12167842 	and	w2, w2, #0xfffffdff
  962c40:	b9000022 	str	w2, [x1]
  962c44:	540003e0 	b.eq	962cc0 <dram_pll_init+0xa0>  // b.none
  962c48:	540002c8 	b.hi	962ca0 <dram_pll_init+0x80>  // b.pmore
  962c4c:	710a6c1f 	cmp	w0, #0x29b
  962c50:	54000440 	b.eq	962cd8 <dram_pll_init+0xb8>  // b.none
  962c54:	7110a81f 	cmp	w0, #0x42a
  962c58:	540000c1 	b.ne	962c70 <dram_pll_init+0x50>  // b.any
  962c5c:	d2800a80 	mov	x0, #0x54                  	// #84
  962c60:	52940661 	mov	w1, #0xa033                	// #41011
  962c64:	f2a606c0 	movk	x0, #0x3036, lsl #16
  962c68:	72a00201 	movk	w1, #0x10, lsl #16
  962c6c:	b9000001 	str	w1, [x0]
  962c70:	d2800a00 	mov	x0, #0x50                  	// #80
  962c74:	f2a606c0 	movk	x0, #0x3036, lsl #16
  962c78:	aa0003e1 	mov	x1, x0
  962c7c:	b9400002 	ldr	w2, [x0]
  962c80:	32170042 	orr	w2, w2, #0x200
  962c84:	b9000002 	str	w2, [x0]
  962c88:	b9400020 	ldr	w0, [x1]
  962c8c:	36ffffe0 	tbz	w0, #31, 962c88 <dram_pll_init+0x68>
  962c90:	b9400020 	ldr	w0, [x1]
  962c94:	120f7800 	and	w0, w0, #0xfffeffff
  962c98:	b9000020 	str	w0, [x1]
  962c9c:	d65f03c0 	ret
  962ca0:	7125801f 	cmp	w0, #0x960
  962ca4:	54fffe61 	b.ne	962c70 <dram_pll_init+0x50>  // b.any
  962ca8:	d2800a80 	mov	x0, #0x54                  	// #84
  962cac:	52980641 	mov	w1, #0xc032                	// #49202
  962cb0:	f2a606c0 	movk	x0, #0x3036, lsl #16
  962cb4:	72a00241 	movk	w1, #0x12, lsl #16
  962cb8:	b9000001 	str	w1, [x0]
  962cbc:	17ffffed 	b	962c70 <dram_pll_init+0x50>
  962cc0:	d2800a80 	mov	x0, #0x54                  	// #84
  962cc4:	52800661 	mov	w1, #0x33                  	// #51
  962cc8:	f2a606c0 	movk	x0, #0x3036, lsl #16
  962ccc:	72a00321 	movk	w1, #0x19, lsl #16
  962cd0:	b9000001 	str	w1, [x0]
  962cd4:	17ffffe7 	b	962c70 <dram_pll_init+0x50>
  962cd8:	d2800a80 	mov	x0, #0x54                  	// #84
  962cdc:	529c0681 	mov	w1, #0xe034                	// #57396
  962ce0:	f2a606c0 	movk	x0, #0x3036, lsl #16
  962ce4:	72a00281 	movk	w1, #0x14, lsl #16
  962ce8:	b9000001 	str	w1, [x0]
  962cec:	17ffffe1 	b	962c70 <dram_pll_init+0x50>

0000000000962cf0 <dram_clock_switch>:
  962cf0:	72001c3f 	tst	w1, #0xff
  962cf4:	540006c0 	b.eq	962dcc <dram_clock_switch+0xdc>  // b.none
  962cf8:	7101901f 	cmp	w0, #0x64
  962cfc:	54000440 	b.eq	962d84 <dram_clock_switch+0x94>  // b.none
  962d00:	7106401f 	cmp	w0, #0x190
  962d04:	540001c0 	b.eq	962d3c <dram_clock_switch+0x4c>  // b.none
  962d08:	d2930102 	mov	x2, #0x9808                	// #38920
  962d0c:	d2941101 	mov	x1, #0xa088                	// #41096
  962d10:	f2a60702 	movk	x2, #0x3038, lsl #16
  962d14:	f2a60701 	movk	x1, #0x3038, lsl #16
  962d18:	d2941080 	mov	x0, #0xa084                	// #41092
  962d1c:	52a02003 	mov	w3, #0x1000000             	// #16777216
  962d20:	f2a60700 	movk	x0, #0x3038, lsl #16
  962d24:	b9000043 	str	w3, [x2]
  962d28:	52a0e0e2 	mov	w2, #0x7070000             	// #117899264
  962d2c:	b9000022 	str	w2, [x1]
  962d30:	52a08081 	mov	w1, #0x4040000             	// #67371008
  962d34:	b9000001 	str	w1, [x0]
  962d38:	d65f03c0 	ret
  962d3c:	d2940102 	mov	x2, #0xa008                	// #40968
  962d40:	d2940081 	mov	x1, #0xa004                	// #40964
  962d44:	f2a60702 	movk	x2, #0x3038, lsl #16
  962d48:	f2a60701 	movk	x1, #0x3038, lsl #16
  962d4c:	d2941103 	mov	x3, #0xa088                	// #41096
  962d50:	52a0e0e0 	mov	w0, #0x7070000             	// #117899264
  962d54:	f2a60703 	movk	x3, #0x3038, lsl #16
  962d58:	b9000040 	str	w0, [x2]
  962d5c:	52a02024 	mov	w4, #0x1010000             	// #16842752
  962d60:	b9000024 	str	w4, [x1]
  962d64:	d2930081 	mov	x1, #0x9804                	// #38916
  962d68:	b9000060 	str	w0, [x3]
  962d6c:	f2a60701 	movk	x1, #0x3038, lsl #16
  962d70:	52a06020 	mov	w0, #0x3010000             	// #50397184
  962d74:	b9007c40 	str	w0, [x2, #124]
  962d78:	52a02000 	mov	w0, #0x1000000             	// #16777216
  962d7c:	b9000020 	str	w0, [x1]
  962d80:	d65f03c0 	ret
  962d84:	d2940102 	mov	x2, #0xa008                	// #40968
  962d88:	d2940081 	mov	x1, #0xa004                	// #40964
  962d8c:	f2a60702 	movk	x2, #0x3038, lsl #16
  962d90:	f2a60701 	movk	x1, #0x3038, lsl #16
  962d94:	d2941103 	mov	x3, #0xa088                	// #41096
  962d98:	52a0e0e0 	mov	w0, #0x7070000             	// #117899264
  962d9c:	f2a60703 	movk	x3, #0x3038, lsl #16
  962da0:	b9000040 	str	w0, [x2]
  962da4:	52a04004 	mov	w4, #0x2000000             	// #33554432
  962da8:	b9000024 	str	w4, [x1]
  962dac:	d2930081 	mov	x1, #0x9804                	// #38916
  962db0:	b9000060 	str	w0, [x3]
  962db4:	f2a60701 	movk	x1, #0x3038, lsl #16
  962db8:	52a04020 	mov	w0, #0x2010000             	// #33619968
  962dbc:	b9007c40 	str	w0, [x2, #124]
  962dc0:	52a02000 	mov	w0, #0x1000000             	// #16777216
  962dc4:	b9000020 	str	w0, [x1]
  962dc8:	d65f03c0 	ret
  962dcc:	17ffff95 	b	962c20 <dram_pll_init>

0000000000962dd0 <dram_enter_retention>:
  962dd0:	d2806102 	mov	x2, #0x308                 	// #776
  962dd4:	52a6c001 	mov	w1, #0x36000000            	// #905969664
  962dd8:	f2a7a802 	movk	x2, #0x3d40, lsl #16
  962ddc:	d503201f 	nop
  962de0:	b9400040 	ldr	w0, [x2]
  962de4:	6b01001f 	cmp	w0, w1
  962de8:	54ffffc1 	b.ne	962de0 <dram_enter_retention+0x10>  // b.any
  962dec:	d2809200 	mov	x0, #0x490                 	// #1168
  962df0:	d2807f81 	mov	x1, #0x3fc                 	// #1020
  962df4:	f2a7a800 	movk	x0, #0x3d40, lsl #16
  962df8:	f2a7a801 	movk	x1, #0x3d40, lsl #16
  962dfc:	b900001f 	str	wzr, [x0]
  962e00:	b9400020 	ldr	w0, [x1]
  962e04:	7200801f 	tst	w0, #0x10001
  962e08:	54ffffc1 	b.ne	962e00 <dram_enter_retention+0x30>  // b.any
  962e0c:	d2800602 	mov	x2, #0x30                  	// #48
  962e10:	52801543 	mov	w3, #0xaa                  	// #170
  962e14:	f2a7a802 	movk	x2, #0x3d40, lsl #16
  962e18:	f0000060 	adrp	x0, 971000 <imx_gicv3_ctx+0x24d0>
  962e1c:	d2800081 	mov	x1, #0x4                   	// #4
  962e20:	b9000043 	str	w3, [x2]
  962e24:	f2a7a801 	movk	x1, #0x3d40, lsl #16
  962e28:	b943e000 	ldr	w0, [x0, #992]
  962e2c:	7100801f 	cmp	w0, #0x20
  962e30:	54000900 	b.eq	962f50 <dram_enter_retention+0x180>  // b.none
  962e34:	d503201f 	nop
  962e38:	b9400020 	ldr	w0, [x1]
  962e3c:	12001400 	and	w0, w0, #0x3f
  962e40:	71008c1f 	cmp	w0, #0x23
  962e44:	54ffffa1 	b.ne	962e38 <dram_enter_retention+0x68>  // b.any
  962e48:	d2803600 	mov	x0, #0x1b0                 	// #432
  962e4c:	d2806404 	mov	x4, #0x320                 	// #800
  962e50:	f2a7a800 	movk	x0, #0x3d40, lsl #16
  962e54:	f2a7a804 	movk	x4, #0x3d40, lsl #16
  962e58:	5283e003 	mov	w3, #0x1f00                	// #7936
  962e5c:	d2803781 	mov	x1, #0x1bc                 	// #444
  962e60:	b900001f 	str	wzr, [x0]
  962e64:	5283e402 	mov	w2, #0x1f20                	// #7968
  962e68:	b900009f 	str	wzr, [x4]
  962e6c:	f2a7a801 	movk	x1, #0x3d40, lsl #16
  962e70:	b9000003 	str	w3, [x0]
  962e74:	b9000002 	str	w2, [x0]
  962e78:	b9400020 	ldr	w0, [x1]
  962e7c:	3707ffe0 	tbnz	w0, #0, 962e78 <dram_enter_retention+0xa8>
  962e80:	d2803600 	mov	x0, #0x1b0                 	// #432
  962e84:	d2803781 	mov	x1, #0x1bc                 	// #444
  962e88:	f2a7a800 	movk	x0, #0x3d40, lsl #16
  962e8c:	5283e002 	mov	w2, #0x1f00                	// #7936
  962e90:	f2a7a801 	movk	x1, #0x3d40, lsl #16
  962e94:	b9000002 	str	w2, [x0]
  962e98:	b9400020 	ldr	w0, [x1]
  962e9c:	3607ffe0 	tbz	w0, #0, 962e98 <dram_enter_retention+0xc8>
  962ea0:	d2806400 	mov	x0, #0x320                 	// #800
  962ea4:	d2a78682 	mov	x2, #0x3c340000            	// #1010040832
  962ea8:	f2a7a800 	movk	x0, #0x3d40, lsl #16
  962eac:	52800023 	mov	w3, #0x1                   	// #1
  962eb0:	d2801404 	mov	x4, #0xa0                  	// #160
  962eb4:	b9000003 	str	w3, [x0]
  962eb8:	f2a78484 	movk	x4, #0x3c24, lsl #16
  962ebc:	b900005f 	str	wzr, [x2]
  962ec0:	d2803f80 	mov	x0, #0x1fc                 	// #508
  962ec4:	f2a60740 	movk	x0, #0x303a, lsl #16
  962ec8:	aa0003e1 	mov	x1, x0
  962ecc:	b9400084 	ldr	w4, [x4]
  962ed0:	b9000043 	str	w3, [x2]
  962ed4:	b9400002 	ldr	w2, [x0]
  962ed8:	121d7842 	and	w2, w2, #0xfffffffb
  962edc:	b9000002 	str	w2, [x0]
  962ee0:	b9400020 	ldr	w0, [x1]
  962ee4:	37a7ffe0 	tbnz	w0, #20, 962ee0 <dram_enter_retention+0x110>
  962ee8:	b9400020 	ldr	w0, [x1]
  962eec:	d2820003 	mov	x3, #0x1000                	// #4096
  962ef0:	f2a60723 	movk	x3, #0x3039, lsl #16
  962ef4:	d2880a02 	mov	x2, #0x4050                	// #16464
  962ef8:	321e0000 	orr	w0, w0, #0x4
  962efc:	f2a60702 	movk	x2, #0x3038, lsl #16
  962f00:	52800104 	mov	w4, #0x8                   	// #8
  962f04:	b9000020 	str	w0, [x1]
  962f08:	d2811e00 	mov	x0, #0x8f0                 	// #2288
  962f0c:	72b1e004 	movk	w4, #0x8f00, lsl #16
  962f10:	f2a60700 	movk	x0, #0x3038, lsl #16
  962f14:	b9000064 	str	w4, [x3]
  962f18:	b900005f 	str	wzr, [x2]
  962f1c:	d281a802 	mov	x2, #0xd40                 	// #3392
  962f20:	f2a60742 	movk	x2, #0x303a, lsl #16
  962f24:	52800041 	mov	w1, #0x2                   	// #2
  962f28:	b9000001 	str	w1, [x0]
  962f2c:	d2802081 	mov	x1, #0x104                 	// #260
  962f30:	f2a60741 	movk	x1, #0x303a, lsl #16
  962f34:	b9400040 	ldr	w0, [x2]
  962f38:	32000000 	orr	w0, w0, #0x1
  962f3c:	b9000040 	str	w0, [x2]
  962f40:	b9400020 	ldr	w0, [x1]
  962f44:	321b0000 	orr	w0, w0, #0x20
  962f48:	b9000020 	str	w0, [x1]
  962f4c:	d65f03c0 	ret
  962f50:	aa0103e2 	mov	x2, x1
  962f54:	528067e1 	mov	w1, #0x33f                 	// #831
  962f58:	b9400040 	ldr	w0, [x2]
  962f5c:	0a010000 	and	w0, w0, w1
  962f60:	71088c1f 	cmp	w0, #0x223
  962f64:	54ffffa1 	b.ne	962f58 <dram_enter_retention+0x188>  // b.any
  962f68:	17ffffb8 	b	962e48 <dram_enter_retention+0x78>
  962f6c:	00000000 	.inst	0x00000000 ; undefined

0000000000962f70 <dram_exit_retention>:
  962f70:	a9be7bfd 	stp	x29, x30, [sp, #-32]!
  962f74:	d2820000 	mov	x0, #0x1000                	// #4096
  962f78:	f2a60720 	movk	x0, #0x3039, lsl #16
  962f7c:	910003fd 	mov	x29, sp
  962f80:	528003e2 	mov	w2, #0x1f                  	// #31
  962f84:	72b1e002 	movk	w2, #0x8f00, lsl #16
  962f88:	d2880a03 	mov	x3, #0x4050                	// #16464
  962f8c:	f9000bf3 	str	x19, [sp, #16]
  962f90:	f2a60703 	movk	x3, #0x3038, lsl #16
  962f94:	528001e1 	mov	w1, #0xf                   	// #15
  962f98:	b9000002 	str	w2, [x0]
  962f9c:	d2811e02 	mov	x2, #0x8f0                 	// #2288
  962fa0:	72b1e001 	movk	w1, #0x8f00, lsl #16
  962fa4:	f2a60702 	movk	x2, #0x3038, lsl #16
  962fa8:	b9000001 	str	w1, [x0]
  962fac:	52800041 	mov	w1, #0x2                   	// #2
  962fb0:	b9000061 	str	w1, [x3]
  962fb4:	d2801f03 	mov	x3, #0xf8                  	// #248
  962fb8:	f2a60743 	movk	x3, #0x303a, lsl #16
  962fbc:	b9000041 	str	w1, [x2]
  962fc0:	528000c4 	mov	w4, #0x6                   	// #6
  962fc4:	d2800a01 	mov	x1, #0x50                  	// #80
  962fc8:	b9400062 	ldr	w2, [x3]
  962fcc:	72b1e004 	movk	w4, #0x8f00, lsl #16
  962fd0:	f2a606c1 	movk	x1, #0x3036, lsl #16
  962fd4:	321b0042 	orr	w2, w2, #0x20
  962fd8:	b9000062 	str	w2, [x3]
  962fdc:	b9000004 	str	w4, [x0]
  962fe0:	b9400020 	ldr	w0, [x1]
  962fe4:	36ffffe0 	tbz	w0, #31, 962fe0 <dram_exit_retention+0x70>
  962fe8:	f0000073 	adrp	x19, 971000 <imx_gicv3_ctx+0x24d0>
  962fec:	910f8273 	add	x19, x19, #0x3e0
  962ff0:	f9400e60 	ldr	x0, [x19, #24]
  962ff4:	97fffda7 	bl	962690 <dram_umctl2_init>
  962ff8:	d2801a02 	mov	x2, #0xd0                  	// #208
  962ffc:	d2800603 	mov	x3, #0x30                  	// #48
  963000:	f2a7a802 	movk	x2, #0x3d40, lsl #16
  963004:	f2a7a803 	movk	x3, #0x3d40, lsl #16
  963008:	d2806085 	mov	x5, #0x304                 	// #772
  96300c:	d2820001 	mov	x1, #0x1000                	// #4096
  963010:	b9400040 	ldr	w0, [x2]
  963014:	f2a7a805 	movk	x5, #0x3d40, lsl #16
  963018:	f2a60721 	movk	x1, #0x3039, lsl #16
  96301c:	52801546 	mov	w6, #0xaa                  	// #170
  963020:	32020400 	orr	w0, w0, #0xc0000000
  963024:	b9000040 	str	w0, [x2]
  963028:	b9000066 	str	w6, [x3]
  96302c:	52800084 	mov	w4, #0x4                   	// #4
  963030:	b90000bf 	str	wzr, [x5]
  963034:	72b1e004 	movk	w4, #0x8f00, lsl #16
  963038:	52b1e000 	mov	w0, #0x8f000000            	// #-1895825408
  96303c:	b9000024 	str	w4, [x1]
  963040:	b9000020 	str	w0, [x1]
  963044:	f9400e60 	ldr	x0, [x19, #24]
  963048:	b902f07f 	str	wzr, [x3, #752]
  96304c:	b900e05f 	str	wzr, [x2, #224]
  963050:	97fffda0 	bl	9626d0 <dram_phy_init>
  963054:	b9400a63 	ldr	w3, [x19, #8]
  963058:	340003a3 	cbz	w3, 9630cc <dram_exit_retention+0x15c>
  96305c:	11000463 	add	w3, w3, #0x1
  963060:	5280210a 	mov	w10, #0x108                 	// #264
  963064:	52802489 	mov	w9, #0x124                 	// #292
  963068:	52801e88 	mov	w8, #0xf4                  	// #244
  96306c:	aa1303e0 	mov	x0, x19
  963070:	53144c63 	lsl	w3, w3, #12
  963074:	52840002 	mov	w2, #0x2000                	// #8192
  963078:	52800001 	mov	w1, #0x0                   	// #0
  96307c:	72a7a80a 	movk	w10, #0x3d40, lsl #16
  963080:	72a7a809 	movk	w9, #0x3d40, lsl #16
  963084:	72a7a808 	movk	w8, #0x3d40, lsl #16
  963088:	0b0a0025 	add	w5, w1, w10
  96308c:	b9408006 	ldr	w6, [x0, #128]
  963090:	b9400264 	ldr	w4, [x19]
  963094:	0b090027 	add	w7, w1, w9
  963098:	b90000a6 	str	w6, [x5]
  96309c:	7100809f 	cmp	w4, #0x20
  9630a0:	54000060 	b.eq	9630ac <dram_exit_retention+0x13c>  // b.none
  9630a4:	b9408404 	ldr	w4, [x0, #132]
  9630a8:	b90000e4 	str	w4, [x7]
  9630ac:	0b080024 	add	w4, w1, w8
  9630b0:	b9408805 	ldr	w5, [x0, #136]
  9630b4:	2a0203e1 	mov	w1, w2
  9630b8:	6b02007f 	cmp	w3, w2
  9630bc:	91003000 	add	x0, x0, #0xc
  9630c0:	11400442 	add	w2, w2, #0x1, lsl #12
  9630c4:	b9000085 	str	w5, [x4]
  9630c8:	54fffe01 	b.ne	963088 <dram_exit_retention+0x118>  // b.any
  9630cc:	d2a78680 	mov	x0, #0x3c340000            	// #1010040832
  9630d0:	d2804b81 	mov	x1, #0x25c                 	// #604
  9630d4:	f2a78101 	movk	x1, #0x3c08, lsl #16
  9630d8:	b900001f 	str	wzr, [x0]
  9630dc:	d503201f 	nop
  9630e0:	b9400020 	ldr	w0, [x1]
  9630e4:	35ffffe0 	cbnz	w0, 9630e0 <dram_exit_retention+0x170>
  9630e8:	d2a78682 	mov	x2, #0x3c340000            	// #1010040832
  9630ec:	d2806401 	mov	x1, #0x320                 	// #800
  9630f0:	f2a7a801 	movk	x1, #0x3d40, lsl #16
  9630f4:	d2803600 	mov	x0, #0x1b0                 	// #432
  9630f8:	52800023 	mov	w3, #0x1                   	// #1
  9630fc:	f2a7a800 	movk	x0, #0x3d40, lsl #16
  963100:	b9000043 	str	w3, [x2]
  963104:	52800402 	mov	w2, #0x20                  	// #32
  963108:	b900003f 	str	wzr, [x1]
  96310c:	d2803781 	mov	x1, #0x1bc                 	// #444
  963110:	f2a7a801 	movk	x1, #0x3d40, lsl #16
  963114:	b9000002 	str	w2, [x0]
  963118:	b9400020 	ldr	w0, [x1]
  96311c:	3607ffe0 	tbz	w0, #0, 963118 <dram_exit_retention+0x1a8>
  963120:	d2803602 	mov	x2, #0x1b0                 	// #432
  963124:	d2806403 	mov	x3, #0x320                 	// #800
  963128:	f2a7a802 	movk	x2, #0x3d40, lsl #16
  96312c:	f2a7a803 	movk	x3, #0x3d40, lsl #16
  963130:	52800020 	mov	w0, #0x1                   	// #1
  963134:	d2806481 	mov	x1, #0x324                 	// #804
  963138:	b900005f 	str	wzr, [x2]
  96313c:	f2a7a801 	movk	x1, #0x3d40, lsl #16
  963140:	b9000040 	str	w0, [x2]
  963144:	b9000060 	str	w0, [x3]
  963148:	b9400020 	ldr	w0, [x1]
  96314c:	3607ffe0 	tbz	w0, #0, 963148 <dram_exit_retention+0x1d8>
  963150:	d2800600 	mov	x0, #0x30                  	// #48
  963154:	d2800081 	mov	x1, #0x4                   	// #4
  963158:	f2a7a800 	movk	x0, #0x3d40, lsl #16
  96315c:	52801102 	mov	w2, #0x88                  	// #136
  963160:	f2a7a801 	movk	x1, #0x3d40, lsl #16
  963164:	b9000002 	str	w2, [x0]
  963168:	b9400020 	ldr	w0, [x1]
  96316c:	12000800 	and	w0, w0, #0x7
  963170:	7100041f 	cmp	w0, #0x1
  963174:	54ffffa1 	b.ne	963168 <dram_exit_retention+0x1f8>  // b.any
  963178:	d2809204 	mov	x4, #0x490                 	// #1168
  96317c:	d2800c03 	mov	x3, #0x60                  	// #96
  963180:	f2a7a804 	movk	x4, #0x3d40, lsl #16
  963184:	f2a7a803 	movk	x3, #0x3d40, lsl #16
  963188:	d2a78681 	mov	x1, #0x3c340000            	// #1010040832
  96318c:	d2801402 	mov	x2, #0xa0                  	// #160
  963190:	f9400bf3 	ldr	x19, [sp, #16]
  963194:	b9000080 	str	w0, [x4]
  963198:	b900007f 	str	wzr, [x3]
  96319c:	f2a78482 	movk	x2, #0x3c24, lsl #16
  9631a0:	b900003f 	str	wzr, [x1]
  9631a4:	b9400042 	ldr	w2, [x2]
  9631a8:	b9000020 	str	w0, [x1]
  9631ac:	a8c27bfd 	ldp	x29, x30, [sp], #32
  9631b0:	d65f03c0 	ret
  9631b4:	00000000 	.inst	0x00000000 ; undefined

00000000009631b8 <ddr4_mr_write>:
  9631b8:	d2800306 	mov	x6, #0x18                  	// #24
  9631bc:	f2a7a806 	movk	x6, #0x3d40, lsl #16
  9631c0:	b94000c5 	ldr	w5, [x6]
  9631c4:	3707ffe5 	tbnz	w5, #0, 9631c0 <ddr4_mr_write+0x8>
  9631c8:	d2801e05 	mov	x5, #0xf0                  	// #240
  9631cc:	f2a7a805 	movk	x5, #0x3d40, lsl #16
  9631d0:	b94000a5 	ldr	w5, [x5]
  9631d4:	f27f00bf 	tst	x5, #0x2
  9631d8:	7a421860 	ccmp	w3, #0x2, #0x0, ne  // ne = any
  9631dc:	54000240 	b.eq	963224 <ddr4_mr_write+0x6c>  // b.none
  9631e0:	d2800204 	mov	x4, #0x10                  	// #16
  9631e4:	d2800285 	mov	x5, #0x14                  	// #20
  9631e8:	f2a7a804 	movk	x4, #0x3d40, lsl #16
  9631ec:	2a031043 	orr	w3, w2, w3, lsl #4
  9631f0:	f2a7a805 	movk	x5, #0x3d40, lsl #16
  9631f4:	2a003063 	orr	w3, w3, w0, lsl #12
  9631f8:	b9000083 	str	w3, [x4]
  9631fc:	d2800302 	mov	x2, #0x18                  	// #24
  963200:	b90000a1 	str	w1, [x5]
  963204:	f2a7a802 	movk	x2, #0x3d40, lsl #16
  963208:	b9400080 	ldr	w0, [x4]
  96320c:	32010000 	orr	w0, w0, #0x80000000
  963210:	b9000080 	str	w0, [x4]
  963214:	d503201f 	nop
  963218:	b9400040 	ldr	w0, [x2]
  96321c:	35ffffe0 	cbnz	w0, 963218 <ddr4_mr_write+0x60>
  963220:	d65f03c0 	ret
  963224:	531f7825 	lsl	w5, w1, #1
  963228:	53017c27 	lsr	w7, w1, #1
  96322c:	121d00ea 	and	w10, w7, #0x8
  963230:	121b00e8 	and	w8, w7, #0x20
  963234:	121c00a6 	and	w6, w5, #0x10
  963238:	121a00a9 	and	w9, w5, #0x40
  96323c:	2a0a00c6 	orr	w6, w6, w10
  963240:	2a080129 	orr	w9, w9, w8
  963244:	121900e7 	and	w7, w7, #0x80
  963248:	531f0008 	ubfiz	w8, w0, #1, #1
  96324c:	d341040a 	ubfx	x10, x0, #1, #1
  963250:	121800a5 	and	w5, w5, #0x100
  963254:	2a0700a5 	orr	w5, w5, w7
  963258:	2a0900c6 	orr	w6, w6, w9
  96325c:	2a0a0107 	orr	w7, w8, w10
  963260:	121e0000 	and	w0, w0, #0x4
  963264:	7100409f 	cmp	w4, #0x10
  963268:	2a0500c5 	orr	w5, w6, w5
  96326c:	2a0000e0 	orr	w0, w7, w0
  963270:	540000a0 	b.eq	963284 <ddr4_mr_write+0xcc>  // b.none
  963274:	529fc0e4 	mov	w4, #0xfe07                	// #65031
  963278:	0a040021 	and	w1, w1, w4
  96327c:	2a050021 	orr	w1, w1, w5
  963280:	17ffffd8 	b	9631e0 <ddr4_mr_write+0x28>
  963284:	531e7424 	lsl	w4, w1, #2
  963288:	53027c27 	lsr	w7, w1, #2
  96328c:	12130086 	and	w6, w4, #0x2000
  963290:	121500e7 	and	w7, w7, #0x800
  963294:	5282c0e4 	mov	w4, #0x1607                	// #5639
  963298:	0a040021 	and	w1, w1, w4
  96329c:	2a050021 	orr	w1, w1, w5
  9632a0:	2a0700c4 	orr	w4, w6, w7
  9632a4:	2a010081 	orr	w1, w4, w1
  9632a8:	17ffffce 	b	9631e0 <ddr4_mr_write+0x28>
  9632ac:	00000000 	.inst	0x00000000 ; undefined

00000000009632b0 <dram_cfg_all_mr>:
  9632b0:	2940480d 	ldp	w13, w18, [x0]
  9632b4:	340003f2 	cbz	w18, 963330 <dram_cfg_all_mr+0x80>
  9632b8:	2a0103ef 	mov	w15, w1
  9632bc:	11000652 	add	w18, w18, #0x1
  9632c0:	910005ee 	add	x14, x15, #0x1
  9632c4:	a9bf7bfd 	stp	x29, x30, [sp, #-16]!
  9632c8:	8b0f140f 	add	x15, x0, x15, lsl #5
  9632cc:	8b0e140e 	add	x14, x0, x14, lsl #5
  9632d0:	5280002c 	mov	w12, #0x1                   	// #1
  9632d4:	910003fd 	mov	x29, sp
  9632d8:	d280000b 	mov	x11, #0x0                   	// #0
  9632dc:	d503201f 	nop
  9632e0:	b86b79c1 	ldr	w1, [x14, x11, lsl #2]
  9632e4:	2a0b03e0 	mov	w0, w11
  9632e8:	9100056b 	add	x11, x11, #0x1
  9632ec:	2a0d03e4 	mov	w4, w13
  9632f0:	2a0c03e3 	mov	w3, w12
  9632f4:	52800002 	mov	w2, #0x0                   	// #0
  9632f8:	97ffffb0 	bl	9631b8 <ddr4_mr_write>
  9632fc:	f100197f 	cmp	x11, #0x6
  963300:	54ffff01 	b.ne	9632e0 <dram_cfg_all_mr+0x30>  // b.any
  963304:	b9403de1 	ldr	w1, [x15, #60]
  963308:	2a0c03e3 	mov	w3, w12
  96330c:	1100058c 	add	w12, w12, #0x1
  963310:	2a0b03e0 	mov	w0, w11
  963314:	2a0d03e4 	mov	w4, w13
  963318:	52800002 	mov	w2, #0x0                   	// #0
  96331c:	97ffffa7 	bl	9631b8 <ddr4_mr_write>
  963320:	6b12019f 	cmp	w12, w18
  963324:	54fffda1 	b.ne	9632d8 <dram_cfg_all_mr+0x28>  // b.any
  963328:	a8c17bfd 	ldp	x29, x30, [sp], #16
  96332c:	d65f03c0 	ret
  963330:	d65f03c0 	ret
  963334:	00000000 	.inst	0x00000000 ; undefined

0000000000963338 <sw_pstate>:
  963338:	a9be7bfd 	stp	x29, x30, [sp, #-32]!
  96333c:	d2806403 	mov	x3, #0x320                 	// #800
  963340:	f2a7a803 	movk	x3, #0x3d40, lsl #16
  963344:	910003fd 	mov	x29, sp
  963348:	d2800502 	mov	x2, #0x28                  	// #40
  96334c:	f2a7a802 	movk	x2, #0x3d40, lsl #16
  963350:	f9000bf3 	str	x19, [sp, #16]
  963354:	d2a7a804 	mov	x4, #0x3d400000            	// #1027604480
  963358:	b900007f 	str	wzr, [x3]
  96335c:	d2800c03 	mov	x3, #0x60                  	// #96
  963360:	b9000040 	str	w0, [x2]
  963364:	f2a7a803 	movk	x3, #0x3d40, lsl #16
  963368:	2a0003f3 	mov	w19, w0
  96336c:	2a0103e0 	mov	w0, w1
  963370:	b9400082 	ldr	w2, [x4]
  963374:	32030042 	orr	w2, w2, #0x20000000
  963378:	b9000082 	str	w2, [x4]
  96337c:	b9400062 	ldr	w2, [x3]
  963380:	36080522 	tbz	w2, #1, 963424 <sw_pstate+0xec>
  963384:	121e7842 	and	w2, w2, #0xfffffffd
  963388:	b9000062 	str	w2, [x3]
  96338c:	d2803601 	mov	x1, #0x1b0                 	// #432
  963390:	53185e73 	lsl	w19, w19, #8
  963394:	f2a7a801 	movk	x1, #0x3d40, lsl #16
  963398:	d2803783 	mov	x3, #0x1bc                 	// #444
  96339c:	321b0262 	orr	w2, w19, #0x20
  9633a0:	f2a7a803 	movk	x3, #0x3d40, lsl #16
  9633a4:	b9000033 	str	w19, [x1]
  9633a8:	b9000022 	str	w2, [x1]
  9633ac:	d503201f 	nop
  9633b0:	b9400062 	ldr	w2, [x3]
  9633b4:	3707ffe2 	tbnz	w2, #0, 9633b0 <sw_pstate+0x78>
  9633b8:	52800001 	mov	w1, #0x0                   	// #0
  9633bc:	97fffe4d 	bl	962cf0 <dram_clock_switch>
  9633c0:	d2803600 	mov	x0, #0x1b0                 	// #432
  9633c4:	d2803781 	mov	x1, #0x1bc                 	// #444
  9633c8:	f2a7a800 	movk	x0, #0x3d40, lsl #16
  9633cc:	f2a7a801 	movk	x1, #0x3d40, lsl #16
  9633d0:	b9000013 	str	w19, [x0]
  9633d4:	d503201f 	nop
  9633d8:	b9400020 	ldr	w0, [x1]
  9633dc:	3607ffe0 	tbz	w0, #0, 9633d8 <sw_pstate+0xa0>
  9633e0:	528001c0 	mov	w0, #0xe                   	// #14
  9633e4:	97fff9e3 	bl	961b70 <udelay>
  9633e8:	d2800602 	mov	x2, #0x30                  	// #48
  9633ec:	d2800081 	mov	x1, #0x4                   	// #4
  9633f0:	f2a7a802 	movk	x2, #0x3d40, lsl #16
  9633f4:	f2a7a801 	movk	x1, #0x3d40, lsl #16
  9633f8:	b9400040 	ldr	w0, [x2]
  9633fc:	121a7800 	and	w0, w0, #0xffffffdf
  963400:	b9000040 	str	w0, [x2]
  963404:	d503201f 	nop
  963408:	b9400020 	ldr	w0, [x1]
  96340c:	12001400 	and	w0, w0, #0x3f
  963410:	71008c1f 	cmp	w0, #0x23
  963414:	54ffffa0 	b.eq	963408 <sw_pstate+0xd0>  // b.none
  963418:	f9400bf3 	ldr	x19, [sp, #16]
  96341c:	a8c27bfd 	ldp	x29, x30, [sp], #32
  963420:	d65f03c0 	ret
  963424:	321f0042 	orr	w2, w2, #0x2
  963428:	b9000062 	str	w2, [x3]
  96342c:	17ffffd8 	b	96338c <sw_pstate+0x54>

0000000000963430 <ddr4_swffc>:
  963430:	a9bd7bfd 	stp	x29, x30, [sp, #-48]!
  963434:	d2806404 	mov	x4, #0x320                 	// #800
  963438:	f2a7a804 	movk	x4, #0x3d40, lsl #16
  96343c:	910003fd 	mov	x29, sp
  963440:	a90153f3 	stp	x19, x20, [sp, #16]
  963444:	aa0003f4 	mov	x20, x0
  963448:	2a0103f3 	mov	w19, w1
  96344c:	f9400c00 	ldr	x0, [x0, #24]
  963450:	d2809202 	mov	x2, #0x490                 	// #1168
  963454:	f2a7a802 	movk	x2, #0x3d40, lsl #16
  963458:	d2807f83 	mov	x3, #0x3fc                 	// #1020
  96345c:	f2a7a803 	movk	x3, #0x3d40, lsl #16
  963460:	8b334800 	add	x0, x0, w19, uxtw #2
  963464:	b9404c01 	ldr	w1, [x0, #76]
  963468:	b900009f 	str	wzr, [x4]
  96346c:	b900005f 	str	wzr, [x2]
  963470:	b9400062 	ldr	w2, [x3]
  963474:	7200805f 	tst	w2, #0x10001
  963478:	54ffffc1 	b.ne	963470 <ddr4_swffc+0x40>  // b.any
  96347c:	d2806082 	mov	x2, #0x304                 	// #772
  963480:	d2806104 	mov	x4, #0x308                 	// #776
  963484:	f2a7a802 	movk	x2, #0x3d40, lsl #16
  963488:	f2a7a804 	movk	x4, #0x3d40, lsl #16
  96348c:	52a0c003 	mov	w3, #0x6000000             	// #100663296
  963490:	b9400040 	ldr	w0, [x2]
  963494:	321f0000 	orr	w0, w0, #0x2
  963498:	b9000040 	str	w0, [x2]
  96349c:	d503201f 	nop
  9634a0:	b9400082 	ldr	w2, [x4]
  9634a4:	12070442 	and	w2, w2, #0x6000000
  9634a8:	6b03005f 	cmp	w2, w3
  9634ac:	54ffffa1 	b.ne	9634a0 <ddr4_swffc+0x70>  // b.any
  9634b0:	d2800080 	mov	x0, #0x4                   	// #4
  9634b4:	f2a7a800 	movk	x0, #0x3d40, lsl #16
  9634b8:	b9400000 	ldr	w0, [x0]
  9634bc:	12000400 	and	w0, w0, #0x3
  9634c0:	71000c1f 	cmp	w0, #0x3
  9634c4:	540004c0 	b.eq	96355c <ddr4_swffc+0x12c>  // b.none
  9634c8:	d2800602 	mov	x2, #0x30                  	// #48
  9634cc:	d2800083 	mov	x3, #0x4                   	// #4
  9634d0:	f2a7a802 	movk	x2, #0x3d40, lsl #16
  9634d4:	f2a7a803 	movk	x3, #0x3d40, lsl #16
  9634d8:	b9400040 	ldr	w0, [x2]
  9634dc:	321b0000 	orr	w0, w0, #0x20
  9634e0:	b9000040 	str	w0, [x2]
  9634e4:	d503201f 	nop
  9634e8:	b9400062 	ldr	w2, [x3]
  9634ec:	12001442 	and	w2, w2, #0x3f
  9634f0:	71008c5f 	cmp	w2, #0x23
  9634f4:	54ffffa1 	b.ne	9634e8 <ddr4_swffc+0xb8>  // b.any
  9634f8:	2a1303e0 	mov	w0, w19
  9634fc:	97ffff8f 	bl	963338 <sw_pstate>
  963500:	2a1303e1 	mov	w1, w19
  963504:	aa1403e0 	mov	x0, x20
  963508:	97ffff6a 	bl	9632b0 <dram_cfg_all_mr>
  96350c:	d2806083 	mov	x3, #0x304                 	// #772
  963510:	d2809205 	mov	x5, #0x490                 	// #1168
  963514:	f2a7a803 	movk	x3, #0x3d40, lsl #16
  963518:	f2a7a805 	movk	x5, #0x3d40, lsl #16
  96351c:	d2806404 	mov	x4, #0x320                 	// #800
  963520:	52800022 	mov	w2, #0x1                   	// #1
  963524:	b9400060 	ldr	w0, [x3]
  963528:	f2a7a804 	movk	x4, #0x3d40, lsl #16
  96352c:	d2806481 	mov	x1, #0x324                 	// #804
  963530:	121e7800 	and	w0, w0, #0xfffffffd
  963534:	b9000060 	str	w0, [x3]
  963538:	b90000a2 	str	w2, [x5]
  96353c:	f2a7a801 	movk	x1, #0x3d40, lsl #16
  963540:	b9000082 	str	w2, [x4]
  963544:	d503201f 	nop
  963548:	b9400020 	ldr	w0, [x1]
  96354c:	3607ffe0 	tbz	w0, #0, 963548 <ddr4_swffc+0x118>
  963550:	a94153f3 	ldp	x19, x20, [sp, #16]
  963554:	a8c37bfd 	ldp	x29, x30, [sp], #48
  963558:	d65f03c0 	ret
  96355c:	d0000020 	adrp	x0, 969000 <vprintf+0x100>
  963560:	91254000 	add	x0, x0, #0x950
  963564:	b9002fe1 	str	w1, [sp, #44]
  963568:	940017a4 	bl	9693f8 <printf>
  96356c:	b9402fe1 	ldr	w1, [sp, #44]
  963570:	17ffffd6 	b	9634c8 <ddr4_swffc+0x98>
  963574:	00000000 	.inst	0x00000000 ; undefined

0000000000963578 <lpddr4_swffc>:
  963578:	a9bc7bfd 	stp	x29, x30, [sp, #-64]!
  96357c:	91008007 	add	x7, x0, #0x20
  963580:	d280060f 	mov	x15, #0x30                  	// #48
  963584:	910003fd 	mov	x29, sp
  963588:	a90153f3 	stp	x19, x20, [sp, #16]
  96358c:	2a0203f3 	mov	w19, w2
  963590:	f2a7a80f 	movk	x15, #0x3d40, lsl #16
  963594:	d37b7e66 	ubfiz	x6, x19, #5, #32
  963598:	7100043f 	cmp	w1, #0x1
  96359c:	8b0600e2 	add	x2, x7, x6
  9635a0:	b94001e3 	ldr	w3, [x15]
  9635a4:	d280388e 	mov	x14, #0x1c4                 	// #452
  9635a8:	a9025bf5 	stp	x21, x22, [sp, #32]
  9635ac:	b86668ec 	ldr	w12, [x7, x6]
  9635b0:	2941a445 	ldp	w5, w9, [x2, #12]
  9635b4:	52800806 	mov	w6, #0x40                  	// #64
  9635b8:	a90363f7 	stp	x23, x24, [sp, #48]
  9635bc:	f2a7a80e 	movk	x14, #0x3d40, lsl #16
  9635c0:	b9401c47 	ldr	w7, [x2, #28]
  9635c4:	2940a84b 	ldp	w11, w10, [x2, #4]
  9635c8:	121c6c63 	and	w3, w3, #0xfffffff0
  9635cc:	52801004 	mov	w4, #0x80                  	// #128
  9635d0:	1a860084 	csel	w4, w4, w6, eq  // eq = none
  9635d4:	29429848 	ldp	w8, w6, [x2, #20]
  9635d8:	b90001e3 	str	w3, [x15]
  9635dc:	120014a5 	and	w5, w5, #0x3f
  9635e0:	5281a00d 	mov	w13, #0xd00                 	// #3328
  9635e4:	b94001d4 	ldr	w20, [x14]
  9635e8:	2a0400a5 	orr	w5, w5, w4
  9635ec:	b94001c2 	ldr	w2, [x14]
  9635f0:	d2800303 	mov	x3, #0x18                  	// #24
  9635f4:	2a0d00ad 	orr	w13, w5, w13
  9635f8:	2a1303e4 	mov	w4, w19
  9635fc:	121f7842 	and	w2, w2, #0xfffffffe
  963600:	f2a7a803 	movk	x3, #0x3d40, lsl #16
  963604:	b90001c2 	str	w2, [x14]
  963608:	b9400062 	ldr	w2, [x3]
  96360c:	3707ffe2 	tbnz	w2, #0, 963608 <lpddr4_swffc+0x90>
  963610:	d2800202 	mov	x2, #0x10                  	// #16
  963614:	d280028e 	mov	x14, #0x14                  	// #20
  963618:	f2a7a802 	movk	x2, #0x3d40, lsl #16
  96361c:	f2a7a80e 	movk	x14, #0x3d40, lsl #16
  963620:	5280060f 	mov	w15, #0x30                  	// #48
  963624:	d2800303 	mov	x3, #0x18                  	// #24
  963628:	b900004f 	str	w15, [x2]
  96362c:	f2a7a803 	movk	x3, #0x3d40, lsl #16
  963630:	b90001cd 	str	w13, [x14]
  963634:	b940004d 	ldr	w13, [x2]
  963638:	320101ad 	orr	w13, w13, #0x80000000
  96363c:	b900004d 	str	w13, [x2]
  963640:	b9400062 	ldr	w2, [x3]
  963644:	3707ffe2 	tbnz	w2, #0, 963640 <lpddr4_swffc+0xc8>
  963648:	d2800202 	mov	x2, #0x10                  	// #16
  96364c:	d280028d 	mov	x13, #0x14                  	// #20
  963650:	f2a7a802 	movk	x2, #0x3d40, lsl #16
  963654:	f2a7a80d 	movk	x13, #0x3d40, lsl #16
  963658:	52800603 	mov	w3, #0x30                  	// #48
  96365c:	3218018c 	orr	w12, w12, #0x100
  963660:	b9000043 	str	w3, [x2]
  963664:	d2800303 	mov	x3, #0x18                  	// #24
  963668:	b90001ac 	str	w12, [x13]
  96366c:	f2a7a803 	movk	x3, #0x3d40, lsl #16
  963670:	b940004c 	ldr	w12, [x2]
  963674:	3201018c 	orr	w12, w12, #0x80000000
  963678:	b900004c 	str	w12, [x2]
  96367c:	d503201f 	nop
  963680:	b9400062 	ldr	w2, [x3]
  963684:	3707ffe2 	tbnz	w2, #0, 963680 <lpddr4_swffc+0x108>
  963688:	d2800202 	mov	x2, #0x10                  	// #16
  96368c:	d280028c 	mov	x12, #0x14                  	// #20
  963690:	f2a7a802 	movk	x2, #0x3d40, lsl #16
  963694:	f2a7a80c 	movk	x12, #0x3d40, lsl #16
  963698:	52800603 	mov	w3, #0x30                  	// #48
  96369c:	3217016b 	orr	w11, w11, #0x200
  9636a0:	b9000043 	str	w3, [x2]
  9636a4:	d2800303 	mov	x3, #0x18                  	// #24
  9636a8:	b900018b 	str	w11, [x12]
  9636ac:	f2a7a803 	movk	x3, #0x3d40, lsl #16
  9636b0:	b940004b 	ldr	w11, [x2]
  9636b4:	3201016b 	orr	w11, w11, #0x80000000
  9636b8:	b900004b 	str	w11, [x2]
  9636bc:	d503201f 	nop
  9636c0:	b9400062 	ldr	w2, [x3]
  9636c4:	3707ffe2 	tbnz	w2, #0, 9636c0 <lpddr4_swffc+0x148>
  9636c8:	d2800202 	mov	x2, #0x10                  	// #16
  9636cc:	d280028b 	mov	x11, #0x14                  	// #20
  9636d0:	f2a7a802 	movk	x2, #0x3d40, lsl #16
  9636d4:	f2a7a80b 	movk	x11, #0x3d40, lsl #16
  9636d8:	52800603 	mov	w3, #0x30                  	// #48
  9636dc:	3218054a 	orr	w10, w10, #0x300
  9636e0:	b9000043 	str	w3, [x2]
  9636e4:	d2800303 	mov	x3, #0x18                  	// #24
  9636e8:	b900016a 	str	w10, [x11]
  9636ec:	f2a7a803 	movk	x3, #0x3d40, lsl #16
  9636f0:	b940004a 	ldr	w10, [x2]
  9636f4:	3201014a 	orr	w10, w10, #0x80000000
  9636f8:	b900004a 	str	w10, [x2]
  9636fc:	d503201f 	nop
  963700:	b9400062 	ldr	w2, [x3]
  963704:	3707ffe2 	tbnz	w2, #0, 963700 <lpddr4_swffc+0x188>
  963708:	d2800202 	mov	x2, #0x10                  	// #16
  96370c:	d280028a 	mov	x10, #0x14                  	// #20
  963710:	f2a7a802 	movk	x2, #0x3d40, lsl #16
  963714:	f2a7a80a 	movk	x10, #0x3d40, lsl #16
  963718:	5280060b 	mov	w11, #0x30                  	// #48
  96371c:	52816003 	mov	w3, #0xb00                 	// #2816
  963720:	b900004b 	str	w11, [x2]
  963724:	2a030123 	orr	w3, w9, w3
  963728:	b9000143 	str	w3, [x10]
  96372c:	d2800303 	mov	x3, #0x18                  	// #24
  963730:	f2a7a803 	movk	x3, #0x3d40, lsl #16
  963734:	b9400049 	ldr	w9, [x2]
  963738:	32010129 	orr	w9, w9, #0x80000000
  96373c:	b9000049 	str	w9, [x2]
  963740:	b9400062 	ldr	w2, [x3]
  963744:	3707ffe2 	tbnz	w2, #0, 963740 <lpddr4_swffc+0x1c8>
  963748:	d2800202 	mov	x2, #0x10                  	// #16
  96374c:	d2800289 	mov	x9, #0x14                  	// #20
  963750:	f2a7a802 	movk	x2, #0x3d40, lsl #16
  963754:	f2a7a809 	movk	x9, #0x3d40, lsl #16
  963758:	52800603 	mov	w3, #0x30                  	// #48
  96375c:	32160508 	orr	w8, w8, #0xc00
  963760:	b9000043 	str	w3, [x2]
  963764:	d2800303 	mov	x3, #0x18                  	// #24
  963768:	b9000128 	str	w8, [x9]
  96376c:	f2a7a803 	movk	x3, #0x3d40, lsl #16
  963770:	b9400048 	ldr	w8, [x2]
  963774:	32010108 	orr	w8, w8, #0x80000000
  963778:	b9000048 	str	w8, [x2]
  96377c:	d503201f 	nop
  963780:	b9400062 	ldr	w2, [x3]
  963784:	3707ffe2 	tbnz	w2, #0, 963780 <lpddr4_swffc+0x208>
  963788:	d2800203 	mov	x3, #0x10                  	// #16
  96378c:	d2800288 	mov	x8, #0x14                  	// #20
  963790:	f2a7a803 	movk	x3, #0x3d40, lsl #16
  963794:	f2a7a808 	movk	x8, #0x3d40, lsl #16
  963798:	52800602 	mov	w2, #0x30                  	// #48
  96379c:	321708e7 	orr	w7, w7, #0xe00
  9637a0:	b9000062 	str	w2, [x3]
  9637a4:	d2800302 	mov	x2, #0x18                  	// #24
  9637a8:	b9000107 	str	w7, [x8]
  9637ac:	f2a7a802 	movk	x2, #0x3d40, lsl #16
  9637b0:	b9400067 	ldr	w7, [x3]
  9637b4:	320100e7 	orr	w7, w7, #0x80000000
  9637b8:	b9000067 	str	w7, [x3]
  9637bc:	d503201f 	nop
  9637c0:	b9400043 	ldr	w3, [x2]
  9637c4:	3707ffe3 	tbnz	w3, #0, 9637c0 <lpddr4_swffc+0x248>
  9637c8:	d2800203 	mov	x3, #0x10                  	// #16
  9637cc:	d2800287 	mov	x7, #0x14                  	// #20
  9637d0:	f2a7a803 	movk	x3, #0x3d40, lsl #16
  9637d4:	f2a7a807 	movk	x7, #0x3d40, lsl #16
  9637d8:	52800608 	mov	w8, #0x30                  	// #48
  9637dc:	5282c002 	mov	w2, #0x1600                	// #5632
  9637e0:	b9000068 	str	w8, [x3]
  9637e4:	2a0200c2 	orr	w2, w6, w2
  9637e8:	b90000e2 	str	w2, [x7]
  9637ec:	d2800302 	mov	x2, #0x18                  	// #24
  9637f0:	f2a7a802 	movk	x2, #0x3d40, lsl #16
  9637f4:	b9400066 	ldr	w6, [x3]
  9637f8:	320100c6 	orr	w6, w6, #0x80000000
  9637fc:	b9000066 	str	w6, [x3]
  963800:	b9400043 	ldr	w3, [x2]
  963804:	3707ffe3 	tbnz	w3, #0, 963800 <lpddr4_swffc+0x288>
  963808:	d2809203 	mov	x3, #0x490                 	// #1168
  96380c:	d2807f82 	mov	x2, #0x3fc                 	// #1020
  963810:	f2a7a803 	movk	x3, #0x3d40, lsl #16
  963814:	f2a7a802 	movk	x2, #0x3d40, lsl #16
  963818:	b900007f 	str	wzr, [x3]
  96381c:	d503201f 	nop
  963820:	b9400043 	ldr	w3, [x2]
  963824:	35ffffe3 	cbnz	w3, 963820 <lpddr4_swffc+0x2a8>
  963828:	d2800082 	mov	x2, #0x4                   	// #4
  96382c:	f2a7a802 	movk	x2, #0x3d40, lsl #16
  963830:	b9400043 	ldr	w3, [x2]
  963834:	12000863 	and	w3, w3, #0x7
  963838:	51000463 	sub	w3, w3, #0x1
  96383c:	7100047f 	cmp	w3, #0x1
  963840:	54ffff88 	b.hi	963830 <lpddr4_swffc+0x2b8>  // b.pmore
  963844:	d2800407 	mov	x7, #0x20                  	// #32
  963848:	d2840406 	mov	x6, #0x2020                	// #8224
  96384c:	f2a7a807 	movk	x7, #0x3d40, lsl #16
  963850:	f2a7a806 	movk	x6, #0x3d40, lsl #16
  963854:	d2860403 	mov	x3, #0x3020                	// #12320
  963858:	d280300c 	mov	x12, #0x180                 	// #384
  96385c:	b94000f7 	ldr	w23, [x7]
  963860:	f2a7a803 	movk	x3, #0x3d40, lsl #16
  963864:	b94000e8 	ldr	w8, [x7]
  963868:	f2a7a80c 	movk	x12, #0x3d40, lsl #16
  96386c:	d284300b 	mov	x11, #0x2180                	// #8576
  963870:	d286300a 	mov	x10, #0x3180                	// #12672
  963874:	121f7908 	and	w8, w8, #0xfffffffe
  963878:	b90000e8 	str	w8, [x7]
  96387c:	f2a7a80b 	movk	x11, #0x3d40, lsl #16
  963880:	f2a7a80a 	movk	x10, #0x3d40, lsl #16
  963884:	b94000d6 	ldr	w22, [x6]
  963888:	d2800609 	mov	x9, #0x30                  	// #48
  96388c:	b94000c7 	ldr	w7, [x6]
  963890:	f2a7a809 	movk	x9, #0x3d40, lsl #16
  963894:	d2800082 	mov	x2, #0x4                   	// #4
  963898:	121f78e7 	and	w7, w7, #0xfffffffe
  96389c:	b90000c7 	str	w7, [x6]
  9638a0:	f2a7a802 	movk	x2, #0x3d40, lsl #16
  9638a4:	b9400075 	ldr	w21, [x3]
  9638a8:	b9400066 	ldr	w6, [x3]
  9638ac:	121f78c6 	and	w6, w6, #0xfffffffe
  9638b0:	b9000066 	str	w6, [x3]
  9638b4:	b9400183 	ldr	w3, [x12]
  9638b8:	32010063 	orr	w3, w3, #0x80000000
  9638bc:	b9000183 	str	w3, [x12]
  9638c0:	b9400163 	ldr	w3, [x11]
  9638c4:	32010063 	orr	w3, w3, #0x80000000
  9638c8:	b9000163 	str	w3, [x11]
  9638cc:	b9400143 	ldr	w3, [x10]
  9638d0:	32010063 	orr	w3, w3, #0x80000000
  9638d4:	b9000143 	str	w3, [x10]
  9638d8:	b9400123 	ldr	w3, [x9]
  9638dc:	121f7863 	and	w3, w3, #0xfffffffe
  9638e0:	b9000123 	str	w3, [x9]
  9638e4:	d503201f 	nop
  9638e8:	b9400043 	ldr	w3, [x2]
  9638ec:	12000863 	and	w3, w3, #0x7
  9638f0:	51000463 	sub	w3, w3, #0x1
  9638f4:	7100047f 	cmp	w3, #0x1
  9638f8:	54ffff88 	b.hi	9638e8 <lpddr4_swffc+0x370>  // b.pmore
  9638fc:	d2800606 	mov	x6, #0x30                  	// #48
  963900:	d2800082 	mov	x2, #0x4                   	// #4
  963904:	f2a7a806 	movk	x6, #0x3d40, lsl #16
  963908:	f2a7a802 	movk	x2, #0x3d40, lsl #16
  96390c:	b94000c3 	ldr	w3, [x6]
  963910:	321b0463 	orr	w3, w3, #0x60
  963914:	b90000c3 	str	w3, [x6]
  963918:	b9400043 	ldr	w3, [x2]
  96391c:	12180463 	and	w3, w3, #0x300
  963920:	7104007f 	cmp	w3, #0x100
  963924:	54ffffa1 	b.ne	963918 <lpddr4_swffc+0x3a0>  // b.any
  963928:	d2806087 	mov	x7, #0x304                 	// #772
  96392c:	d2806106 	mov	x6, #0x308                 	// #776
  963930:	f2a7a807 	movk	x7, #0x3d40, lsl #16
  963934:	f2a7a806 	movk	x6, #0x3d40, lsl #16
  963938:	52a60002 	mov	w2, #0x30000000            	// #805306368
  96393c:	b94000e3 	ldr	w3, [x7]
  963940:	32000063 	orr	w3, w3, #0x1
  963944:	b90000e3 	str	w3, [x7]
  963948:	b94000c3 	ldr	w3, [x6]
  96394c:	12040463 	and	w3, w3, #0x30000000
  963950:	6b02007f 	cmp	w3, w2
  963954:	54ffffa1 	b.ne	963948 <lpddr4_swffc+0x3d0>  // b.any
  963958:	f240003f 	tst	x1, #0x1
  96395c:	52800102 	mov	w2, #0x8                   	// #8
  963960:	52801118 	mov	w24, #0x88                  	// #136
  963964:	52800ee1 	mov	w1, #0x77                  	// #119
  963968:	1a820318 	csel	w24, w24, w2, eq  // eq = none
  96396c:	0a0100a5 	and	w5, w5, w1
  963970:	2a1800b8 	orr	w24, w5, w24
  963974:	5281a003 	mov	w3, #0xd00                 	// #3328
  963978:	d2800302 	mov	x2, #0x18                  	// #24
  96397c:	2a030303 	orr	w3, w24, w3
  963980:	f2a7a802 	movk	x2, #0x3d40, lsl #16
  963984:	d503201f 	nop
  963988:	b9400041 	ldr	w1, [x2]
  96398c:	3707ffe1 	tbnz	w1, #0, 963988 <lpddr4_swffc+0x410>
  963990:	d2800201 	mov	x1, #0x10                  	// #16
  963994:	d2800286 	mov	x6, #0x14                  	// #20
  963998:	f2a7a801 	movk	x1, #0x3d40, lsl #16
  96399c:	f2a7a806 	movk	x6, #0x3d40, lsl #16
  9639a0:	52800602 	mov	w2, #0x30                  	// #48
  9639a4:	d2800605 	mov	x5, #0x30                  	// #48
  9639a8:	b9000022 	str	w2, [x1]
  9639ac:	f2a7a805 	movk	x5, #0x3d40, lsl #16
  9639b0:	b90000c3 	str	w3, [x6]
  9639b4:	d2800082 	mov	x2, #0x4                   	// #4
  9639b8:	f2a7a802 	movk	x2, #0x3d40, lsl #16
  9639bc:	b9400023 	ldr	w3, [x1]
  9639c0:	32010063 	orr	w3, w3, #0x80000000
  9639c4:	b9000023 	str	w3, [x1]
  9639c8:	b94000a1 	ldr	w1, [x5]
  9639cc:	12197421 	and	w1, w1, #0xffffff9f
  9639d0:	321b0021 	orr	w1, w1, #0x20
  9639d4:	b90000a1 	str	w1, [x5]
  9639d8:	b9400041 	ldr	w1, [x2]
  9639dc:	12180421 	and	w1, w1, #0x300
  9639e0:	7108003f 	cmp	w1, #0x200
  9639e4:	54ffffa1 	b.ne	9639d8 <lpddr4_swffc+0x460>  // b.any
  9639e8:	d2806402 	mov	x2, #0x320                 	// #800
  9639ec:	d2800501 	mov	x1, #0x28                  	// #40
  9639f0:	f2a7a802 	movk	x2, #0x3d40, lsl #16
  9639f4:	f2a7a801 	movk	x1, #0x3d40, lsl #16
  9639f8:	d2800c05 	mov	x5, #0x60                  	// #96
  9639fc:	d2803603 	mov	x3, #0x1b0                 	// #432
  963a00:	b900005f 	str	wzr, [x2]
  963a04:	f2a7a805 	movk	x5, #0x3d40, lsl #16
  963a08:	b9000033 	str	w19, [x1]
  963a0c:	f2a7a803 	movk	x3, #0x3d40, lsl #16
  963a10:	d2803782 	mov	x2, #0x1bc                 	// #444
  963a14:	b94000a1 	ldr	w1, [x5]
  963a18:	f2a7a802 	movk	x2, #0x3d40, lsl #16
  963a1c:	521f0021 	eor	w1, w1, #0x2
  963a20:	b90000a1 	str	w1, [x5]
  963a24:	b9400061 	ldr	w1, [x3]
  963a28:	121f1821 	and	w1, w1, #0xfe
  963a2c:	2a132021 	orr	w1, w1, w19, lsl #8
  963a30:	b9000061 	str	w1, [x3]
  963a34:	321b0021 	orr	w1, w1, #0x20
  963a38:	b9000061 	str	w1, [x3]
  963a3c:	d503201f 	nop
  963a40:	b9400041 	ldr	w1, [x2]
  963a44:	3707ffe1 	tbnz	w1, #0, 963a40 <lpddr4_swffc+0x4c8>
  963a48:	f9400c02 	ldr	x2, [x0, #24]
  963a4c:	39405001 	ldrb	w1, [x0, #20]
  963a50:	8b040844 	add	x4, x2, x4, lsl #2
  963a54:	b9404c80 	ldr	w0, [x4, #76]
  963a58:	97fffca6 	bl	962cf0 <dram_clock_switch>
  963a5c:	d2803602 	mov	x2, #0x1b0                 	// #432
  963a60:	d2803781 	mov	x1, #0x1bc                 	// #444
  963a64:	f2a7a802 	movk	x2, #0x3d40, lsl #16
  963a68:	f2a7a801 	movk	x1, #0x3d40, lsl #16
  963a6c:	b9400040 	ldr	w0, [x2]
  963a70:	121a7800 	and	w0, w0, #0xffffffdf
  963a74:	b9000040 	str	w0, [x2]
  963a78:	b9400020 	ldr	w0, [x1]
  963a7c:	3607ffe0 	tbz	w0, #0, 963a78 <lpddr4_swffc+0x500>
  963a80:	35000e53 	cbnz	w19, 963c48 <lpddr4_swffc+0x6d0>
  963a84:	d2803001 	mov	x1, #0x180                 	// #384
  963a88:	f2a7a801 	movk	x1, #0x3d40, lsl #16
  963a8c:	b9400020 	ldr	w0, [x1]
  963a90:	32020000 	orr	w0, w0, #0x40000000
  963a94:	b9000020 	str	w0, [x1]
  963a98:	d2800602 	mov	x2, #0x30                  	// #48
  963a9c:	d2800081 	mov	x1, #0x4                   	// #4
  963aa0:	f2a7a802 	movk	x2, #0x3d40, lsl #16
  963aa4:	f2a7a801 	movk	x1, #0x3d40, lsl #16
  963aa8:	b9400040 	ldr	w0, [x2]
  963aac:	12197400 	and	w0, w0, #0xffffff9f
  963ab0:	321a0000 	orr	w0, w0, #0x40
  963ab4:	b9000040 	str	w0, [x2]
  963ab8:	b9400020 	ldr	w0, [x1]
  963abc:	12180400 	and	w0, w0, #0x300
  963ac0:	710c001f 	cmp	w0, #0x300
  963ac4:	54ffffa1 	b.ne	963ab8 <lpddr4_swffc+0x540>  // b.any
  963ac8:	52801ee0 	mov	w0, #0xf7                  	// #247
  963acc:	0a000318 	and	w24, w24, w0
  963ad0:	d2800301 	mov	x1, #0x18                  	// #24
  963ad4:	5281a000 	mov	w0, #0xd00                 	// #3328
  963ad8:	2a000318 	orr	w24, w24, w0
  963adc:	f2a7a801 	movk	x1, #0x3d40, lsl #16
  963ae0:	b9400020 	ldr	w0, [x1]
  963ae4:	3707ffe0 	tbnz	w0, #0, 963ae0 <lpddr4_swffc+0x568>
  963ae8:	d2800200 	mov	x0, #0x10                  	// #16
  963aec:	d2800281 	mov	x1, #0x14                  	// #20
  963af0:	f2a7a800 	movk	x0, #0x3d40, lsl #16
  963af4:	f2a7a801 	movk	x1, #0x3d40, lsl #16
  963af8:	52800602 	mov	w2, #0x30                  	// #48
  963afc:	d2803884 	mov	x4, #0x1c4                 	// #452
  963b00:	b9000002 	str	w2, [x0]
  963b04:	f2a7a804 	movk	x4, #0x3d40, lsl #16
  963b08:	b9000038 	str	w24, [x1]
  963b0c:	d2806183 	mov	x3, #0x30c                 	// #780
  963b10:	f2a7a803 	movk	x3, #0x3d40, lsl #16
  963b14:	910bf021 	add	x1, x1, #0x2fc
  963b18:	b9400002 	ldr	w2, [x0]
  963b1c:	32010042 	orr	w2, w2, #0x80000000
  963b20:	b9000002 	str	w2, [x0]
  963b24:	b9000094 	str	w20, [x4]
  963b28:	b9400060 	ldr	w0, [x3]
  963b2c:	321c0000 	orr	w0, w0, #0x10
  963b30:	b9000060 	str	w0, [x3]
  963b34:	d503201f 	nop
  963b38:	b9400020 	ldr	w0, [x1]
  963b3c:	3727ffe0 	tbnz	w0, #4, 963b38 <lpddr4_swffc+0x5c0>
  963b40:	7100067f 	cmp	w19, #0x1
  963b44:	540009e0 	b.eq	963c80 <lpddr4_swffc+0x708>  // b.none
  963b48:	71000a7f 	cmp	w19, #0x2
  963b4c:	540008e0 	b.eq	963c68 <lpddr4_swffc+0x6f0>  // b.none
  963b50:	d2803001 	mov	x1, #0x180                 	// #384
  963b54:	f2a7a801 	movk	x1, #0x3d40, lsl #16
  963b58:	b9400020 	ldr	w0, [x1]
  963b5c:	12017800 	and	w0, w0, #0xbfffffff
  963b60:	b9000020 	str	w0, [x1]
  963b64:	d2806400 	mov	x0, #0x320                 	// #800
  963b68:	d2806481 	mov	x1, #0x324                 	// #804
  963b6c:	f2a7a800 	movk	x0, #0x3d40, lsl #16
  963b70:	52800022 	mov	w2, #0x1                   	// #1
  963b74:	f2a7a801 	movk	x1, #0x3d40, lsl #16
  963b78:	b9000002 	str	w2, [x0]
  963b7c:	d503201f 	nop
  963b80:	b9400020 	ldr	w0, [x1]
  963b84:	3607ffe0 	tbz	w0, #0, 963b80 <lpddr4_swffc+0x608>
  963b88:	d2800602 	mov	x2, #0x30                  	// #48
  963b8c:	d2800081 	mov	x1, #0x4                   	// #4
  963b90:	f2a7a802 	movk	x2, #0x3d40, lsl #16
  963b94:	f2a7a801 	movk	x1, #0x3d40, lsl #16
  963b98:	b9400040 	ldr	w0, [x2]
  963b9c:	12197800 	and	w0, w0, #0xffffffbf
  963ba0:	b9000040 	str	w0, [x2]
  963ba4:	d503201f 	nop
  963ba8:	b9400020 	ldr	w0, [x1]
  963bac:	7218041f 	tst	w0, #0x300
  963bb0:	54ffffc1 	b.ne	963ba8 <lpddr4_swffc+0x630>  // b.any
  963bb4:	d2806082 	mov	x2, #0x304                 	// #772
  963bb8:	d2800601 	mov	x1, #0x30                  	// #48
  963bbc:	f2a7a802 	movk	x2, #0x3d40, lsl #16
  963bc0:	f2a7a801 	movk	x1, #0x3d40, lsl #16
  963bc4:	7100067f 	cmp	w19, #0x1
  963bc8:	b9400040 	ldr	w0, [x2]
  963bcc:	121f7800 	and	w0, w0, #0xfffffffe
  963bd0:	b9000040 	str	w0, [x2]
  963bd4:	b9400020 	ldr	w0, [x1]
  963bd8:	32000000 	orr	w0, w0, #0x1
  963bdc:	b9000020 	str	w0, [x1]
  963be0:	540005c0 	b.eq	963c98 <lpddr4_swffc+0x720>  // b.none
  963be4:	71000a7f 	cmp	w19, #0x2
  963be8:	54000640 	b.eq	963cb0 <lpddr4_swffc+0x738>  // b.none
  963bec:	d2803001 	mov	x1, #0x180                 	// #384
  963bf0:	f2a7a801 	movk	x1, #0x3d40, lsl #16
  963bf4:	b9400020 	ldr	w0, [x1]
  963bf8:	12007800 	and	w0, w0, #0x7fffffff
  963bfc:	b9000020 	str	w0, [x1]
  963c00:	d2800401 	mov	x1, #0x20                  	// #32
  963c04:	d2840403 	mov	x3, #0x2020                	// #8224
  963c08:	f2a7a801 	movk	x1, #0x3d40, lsl #16
  963c0c:	f2a7a803 	movk	x3, #0x3d40, lsl #16
  963c10:	d2860402 	mov	x2, #0x3020                	// #12320
  963c14:	d2809200 	mov	x0, #0x490                 	// #1168
  963c18:	f2a7a802 	movk	x2, #0x3d40, lsl #16
  963c1c:	f2a7a800 	movk	x0, #0x3d40, lsl #16
  963c20:	a94153f3 	ldp	x19, x20, [sp, #16]
  963c24:	b9000037 	str	w23, [x1]
  963c28:	a94363f7 	ldp	x23, x24, [sp, #48]
  963c2c:	b9000076 	str	w22, [x3]
  963c30:	b9000055 	str	w21, [x2]
  963c34:	52800021 	mov	w1, #0x1                   	// #1
  963c38:	a9425bf5 	ldp	x21, x22, [sp, #32]
  963c3c:	b9000001 	str	w1, [x0]
  963c40:	a8c47bfd 	ldp	x29, x30, [sp], #64
  963c44:	d65f03c0 	ret
  963c48:	7100067f 	cmp	w19, #0x1
  963c4c:	540003e0 	b.eq	963cc8 <lpddr4_swffc+0x750>  // b.none
  963c50:	d2863001 	mov	x1, #0x3180                	// #12672
  963c54:	f2a7a801 	movk	x1, #0x3d40, lsl #16
  963c58:	b9400020 	ldr	w0, [x1]
  963c5c:	32020000 	orr	w0, w0, #0x40000000
  963c60:	b9000020 	str	w0, [x1]
  963c64:	17ffff8d 	b	963a98 <lpddr4_swffc+0x520>
  963c68:	d2863001 	mov	x1, #0x3180                	// #12672
  963c6c:	f2a7a801 	movk	x1, #0x3d40, lsl #16
  963c70:	b9400020 	ldr	w0, [x1]
  963c74:	12017800 	and	w0, w0, #0xbfffffff
  963c78:	b9000020 	str	w0, [x1]
  963c7c:	17ffffba 	b	963b64 <lpddr4_swffc+0x5ec>
  963c80:	d2843001 	mov	x1, #0x2180                	// #8576
  963c84:	f2a7a801 	movk	x1, #0x3d40, lsl #16
  963c88:	b9400020 	ldr	w0, [x1]
  963c8c:	12017800 	and	w0, w0, #0xbfffffff
  963c90:	b9000020 	str	w0, [x1]
  963c94:	17ffffb4 	b	963b64 <lpddr4_swffc+0x5ec>
  963c98:	d2843001 	mov	x1, #0x2180                	// #8576
  963c9c:	f2a7a801 	movk	x1, #0x3d40, lsl #16
  963ca0:	b9400020 	ldr	w0, [x1]
  963ca4:	12007800 	and	w0, w0, #0x7fffffff
  963ca8:	b9000020 	str	w0, [x1]
  963cac:	17ffffd5 	b	963c00 <lpddr4_swffc+0x688>
  963cb0:	d2863001 	mov	x1, #0x3180                	// #12672
  963cb4:	f2a7a801 	movk	x1, #0x3d40, lsl #16
  963cb8:	b9400020 	ldr	w0, [x1]
  963cbc:	12007800 	and	w0, w0, #0x7fffffff
  963cc0:	b9000020 	str	w0, [x1]
  963cc4:	17ffffcf 	b	963c00 <lpddr4_swffc+0x688>
  963cc8:	d2843001 	mov	x1, #0x2180                	// #8576
  963ccc:	f2a7a801 	movk	x1, #0x3d40, lsl #16
  963cd0:	b9400020 	ldr	w0, [x1]
  963cd4:	32020000 	orr	w0, w0, #0x40000000
  963cd8:	b9000020 	str	w0, [x1]
  963cdc:	17ffff6f 	b	963a98 <lpddr4_swffc+0x520>

0000000000963ce0 <gicd_read_igrpmodr>:
  963ce0:	53057c21 	lsr	w1, w1, #5
  963ce4:	91340000 	add	x0, x0, #0xd00
  963ce8:	531e7421 	lsl	w1, w1, #2
  963cec:	b8614800 	ldr	w0, [x0, w1, uxtw]
  963cf0:	d65f03c0 	ret
  963cf4:	00000000 	.inst	0x00000000 ; undefined

0000000000963cf8 <gicd_write_igrpmodr>:
  963cf8:	53057c21 	lsr	w1, w1, #5
  963cfc:	91340000 	add	x0, x0, #0xd00
  963d00:	531e7421 	lsl	w1, w1, #2
  963d04:	b8214802 	str	w2, [x0, w1, uxtw]
  963d08:	d65f03c0 	ret
  963d0c:	00000000 	.inst	0x00000000 ; undefined

0000000000963d10 <gicr_read_ipriorityr>:
  963d10:	91404000 	add	x0, x0, #0x10, lsl #12
  963d14:	121e7421 	and	w1, w1, #0xfffffffc
  963d18:	91100000 	add	x0, x0, #0x400
  963d1c:	b8614800 	ldr	w0, [x0, w1, uxtw]
  963d20:	d65f03c0 	ret
  963d24:	00000000 	.inst	0x00000000 ; undefined

0000000000963d28 <gicr_write_ipriorityr>:
  963d28:	91404000 	add	x0, x0, #0x10, lsl #12
  963d2c:	121e7421 	and	w1, w1, #0xfffffffc
  963d30:	91100000 	add	x0, x0, #0x400
  963d34:	b8214802 	str	w2, [x0, w1, uxtw]
  963d38:	d65f03c0 	ret
  963d3c:	00000000 	.inst	0x00000000 ; undefined

0000000000963d40 <gicv3_rdistif_mark_core_awake>:
  963d40:	b9401402 	ldr	w2, [x0, #20]
  963d44:	91005001 	add	x1, x0, #0x14
  963d48:	37f800e2 	tbnz	w2, #31, 963d64 <gicv3_rdistif_mark_core_awake+0x24>
  963d4c:	b9401402 	ldr	w2, [x0, #20]
  963d50:	121e7842 	and	w2, w2, #0xfffffffd
  963d54:	b9001402 	str	w2, [x0, #20]
  963d58:	b9400020 	ldr	w0, [x1]
  963d5c:	3717ffe0 	tbnz	w0, #2, 963d58 <gicv3_rdistif_mark_core_awake+0x18>
  963d60:	d65f03c0 	ret
  963d64:	b9401402 	ldr	w2, [x0, #20]
  963d68:	121f7842 	and	w2, w2, #0xfffffffe
  963d6c:	b9001402 	str	w2, [x0, #20]
  963d70:	b9400022 	ldr	w2, [x1]
  963d74:	37ffffe2 	tbnz	w2, #31, 963d70 <gicv3_rdistif_mark_core_awake+0x30>
  963d78:	17fffff5 	b	963d4c <gicv3_rdistif_mark_core_awake+0xc>
  963d7c:	00000000 	.inst	0x00000000 ; undefined

0000000000963d80 <gicv3_rdistif_mark_core_asleep>:
  963d80:	b9401402 	ldr	w2, [x0, #20]
  963d84:	91005001 	add	x1, x0, #0x14
  963d88:	321f0042 	orr	w2, w2, #0x2
  963d8c:	b9001402 	str	w2, [x0, #20]
  963d90:	b9400020 	ldr	w0, [x1]
  963d94:	3617ffe0 	tbz	w0, #2, 963d90 <gicv3_rdistif_mark_core_asleep+0x10>
  963d98:	d65f03c0 	ret
  963d9c:	00000000 	.inst	0x00000000 ; undefined

0000000000963da0 <gicv3_rdistif_base_addrs_probe>:
  963da0:	a9bc7bfd 	stp	x29, x30, [sp, #-64]!
  963da4:	910003fd 	mov	x29, sp
  963da8:	a90153f3 	stp	x19, x20, [sp, #16]
  963dac:	aa0203f4 	mov	x20, x2
  963db0:	a9025bf5 	stp	x21, x22, [sp, #32]
  963db4:	2a0103f6 	mov	w22, w1
  963db8:	aa0303f5 	mov	x21, x3
  963dbc:	f9001bf7 	str	x23, [sp, #48]
  963dc0:	aa0003f7 	mov	x23, x0
  963dc4:	d503201f 	nop
  963dc8:	f9400693 	ldr	x19, [x20, #8]
  963dcc:	d378fe61 	lsr	x1, x19, #56
  963dd0:	d360de62 	ubfx	x2, x19, #32, #24
  963dd4:	53085e60 	ubfx	w0, w19, #8, #16
  963dd8:	b4000075 	cbz	x21, 963de4 <gicv3_rdistif_base_addrs_probe+0x44>
  963ddc:	aa018040 	orr	x0, x2, x1, lsl #32
  963de0:	d63f02a0 	blr	x21
  963de4:	6b16001f 	cmp	w0, w22
  963de8:	54000042 	b.cs	963df0 <gicv3_rdistif_base_addrs_probe+0x50>  // b.hs, b.nlast
  963dec:	f8205af4 	str	x20, [x23, w0, uxtw #3]
  963df0:	91408294 	add	x20, x20, #0x20, lsl #12
  963df4:	3627feb3 	tbz	w19, #4, 963dc8 <gicv3_rdistif_base_addrs_probe+0x28>
  963df8:	a94153f3 	ldp	x19, x20, [sp, #16]
  963dfc:	a9425bf5 	ldp	x21, x22, [sp, #32]
  963e00:	f9401bf7 	ldr	x23, [sp, #48]
  963e04:	a8c47bfd 	ldp	x29, x30, [sp], #64
  963e08:	d65f03c0 	ret
  963e0c:	00000000 	.inst	0x00000000 ; undefined

0000000000963e10 <gicv3_spis_config_defaults>:
  963e10:	a9bd7bfd 	stp	x29, x30, [sp, #-48]!
  963e14:	910003fd 	mov	x29, sp
  963e18:	a90153f3 	stp	x19, x20, [sp, #16]
  963e1c:	aa0003f4 	mov	x20, x0
  963e20:	b9400400 	ldr	w0, [x0, #4]
  963e24:	531b1000 	ubfiz	w0, w0, #5, #5
  963e28:	34000380 	cbz	w0, 963e98 <gicv3_spis_config_defaults+0x88>
  963e2c:	f90013f5 	str	x21, [sp, #32]
  963e30:	11008015 	add	w21, w0, #0x20
  963e34:	52800413 	mov	w19, #0x20                  	// #32
  963e38:	2a1303e1 	mov	w1, w19
  963e3c:	aa1403e0 	mov	x0, x20
  963e40:	11008273 	add	w19, w19, #0x20
  963e44:	12800002 	mov	w2, #0xffffffff            	// #-1
  963e48:	94000354 	bl	964b98 <gicd_write_igroupr>
  963e4c:	6b1302bf 	cmp	w21, w19
  963e50:	54ffff48 	b.hi	963e38 <gicv3_spis_config_defaults+0x28>  // b.pmore
  963e54:	52800413 	mov	w19, #0x20                  	// #32
  963e58:	2a1303e1 	mov	w1, w19
  963e5c:	aa1403e0 	mov	x0, x20
  963e60:	11001273 	add	w19, w19, #0x4
  963e64:	3201c3e2 	mov	w2, #0x80808080            	// #-2139062144
  963e68:	94000364 	bl	964bf8 <gicd_write_ipriorityr>
  963e6c:	6b1302bf 	cmp	w21, w19
  963e70:	54ffff48 	b.hi	963e58 <gicv3_spis_config_defaults+0x48>  // b.pmore
  963e74:	52800413 	mov	w19, #0x20                  	// #32
  963e78:	2a1303e1 	mov	w1, w19
  963e7c:	aa1403e0 	mov	x0, x20
  963e80:	11004273 	add	w19, w19, #0x10
  963e84:	52800002 	mov	w2, #0x0                   	// #0
  963e88:	94000360 	bl	964c08 <gicd_write_icfgr>
  963e8c:	6b1302bf 	cmp	w21, w19
  963e90:	54ffff48 	b.hi	963e78 <gicv3_spis_config_defaults+0x68>  // b.pmore
  963e94:	f94013f5 	ldr	x21, [sp, #32]
  963e98:	a94153f3 	ldp	x19, x20, [sp, #16]
  963e9c:	a8c37bfd 	ldp	x29, x30, [sp], #48
  963ea0:	d65f03c0 	ret
  963ea4:	00000000 	.inst	0x00000000 ; undefined

0000000000963ea8 <gicv3_secure_spis_config_props>:
  963ea8:	a9bb7bfd 	stp	x29, x30, [sp, #-80]!
  963eac:	910003fd 	mov	x29, sp
  963eb0:	a9025bf5 	stp	x21, x22, [sp, #32]
  963eb4:	34000882 	cbz	w2, 963fc4 <gicv3_secure_spis_config_props+0x11c>
  963eb8:	51000442 	sub	w2, w2, #0x1
  963ebc:	91001035 	add	x21, x1, #0x4
  963ec0:	52800016 	mov	w22, #0x0                   	// #0
  963ec4:	a90153f3 	stp	x19, x20, [sp, #16]
  963ec8:	8b224ab5 	add	x21, x21, w2, uxtw #2
  963ecc:	aa0003f4 	mov	x20, x0
  963ed0:	aa0103f3 	mov	x19, x1
  963ed4:	a90363f7 	stp	x23, x24, [sp, #48]
  963ed8:	91340017 	add	x23, x0, #0xd00
  963edc:	91401818 	add	x24, x0, #0x6, lsl #12
  963ee0:	f90023f9 	str	x25, [sp, #64]
  963ee4:	52800039 	mov	w25, #0x1                   	// #1
  963ee8:	1400001d 	b	963f5c <gicv3_secure_spis_config_props+0xb4>
  963eec:	d3452403 	ubfx	x3, x0, #5, #5
  963ef0:	321e02d6 	orr	w22, w22, #0x4
  963ef4:	12002401 	and	w1, w0, #0x3ff
  963ef8:	1ac02320 	lsl	w0, w25, w0
  963efc:	531e7463 	lsl	w3, w3, #2
  963f00:	b8634ae4 	ldr	w4, [x23, w3, uxtw]
  963f04:	2a040000 	orr	w0, w0, w4
  963f08:	b8234ae0 	str	w0, [x23, w3, uxtw]
  963f0c:	aa1403e0 	mov	x0, x20
  963f10:	d3441442 	ubfx	x2, x2, #4, #2
  963f14:	9400035f 	bl	964c90 <gicd_set_icfgr>
  963f18:	b9400262 	ldr	w2, [x19]
  963f1c:	aa1403e0 	mov	x0, x20
  963f20:	79400261 	ldrh	w1, [x19]
  963f24:	d34a4442 	ubfx	x2, x2, #10, #8
  963f28:	12002421 	and	w1, w1, #0x3ff
  963f2c:	94000355 	bl	964c80 <gicd_set_ipriorityr>
  963f30:	d53800a3 	mrs	x3, mpidr_el1
  963f34:	79400262 	ldrh	w2, [x19]
  963f38:	92405c63 	and	x3, x3, #0xffffff
  963f3c:	aa1403e0 	mov	x0, x20
  963f40:	12002441 	and	w1, w2, #0x3ff
  963f44:	531d2442 	ubfiz	w2, w2, #3, #10
  963f48:	f8224b03 	str	x3, [x24, w2, uxtw]
  963f4c:	94000345 	bl	964c60 <gicd_set_isenabler>
  963f50:	91001273 	add	x19, x19, #0x4
  963f54:	eb1302bf 	cmp	x21, x19
  963f58:	54000280 	b.eq	963fa8 <gicv3_secure_spis_config_props+0x100>  // b.none
  963f5c:	79400261 	ldrh	w1, [x19]
  963f60:	aa1403e0 	mov	x0, x20
  963f64:	12002421 	and	w1, w1, #0x3ff
  963f68:	71007c3f 	cmp	w1, #0x1f
  963f6c:	54ffff29 	b.ls	963f50 <gicv3_secure_spis_config_props+0xa8>  // b.plast
  963f70:	94000332 	bl	964c38 <gicd_clr_igroupr>
  963f74:	39400a62 	ldrb	w2, [x19, #2]
  963f78:	79400260 	ldrh	w0, [x19]
  963f7c:	721e045f 	tst	w2, #0xc
  963f80:	54fffb60 	b.eq	963eec <gicv3_secure_spis_config_props+0x44>  // b.none
  963f84:	d3452403 	ubfx	x3, x0, #5, #5
  963f88:	12002401 	and	w1, w0, #0x3ff
  963f8c:	320002d6 	orr	w22, w22, #0x1
  963f90:	1ac02320 	lsl	w0, w25, w0
  963f94:	531e7463 	lsl	w3, w3, #2
  963f98:	b8634ae4 	ldr	w4, [x23, w3, uxtw]
  963f9c:	0a200080 	bic	w0, w4, w0
  963fa0:	b8234ae0 	str	w0, [x23, w3, uxtw]
  963fa4:	17ffffda 	b	963f0c <gicv3_secure_spis_config_props+0x64>
  963fa8:	2a1603e0 	mov	w0, w22
  963fac:	a94153f3 	ldp	x19, x20, [sp, #16]
  963fb0:	a9425bf5 	ldp	x21, x22, [sp, #32]
  963fb4:	a94363f7 	ldp	x23, x24, [sp, #48]
  963fb8:	f94023f9 	ldr	x25, [sp, #64]
  963fbc:	a8c57bfd 	ldp	x29, x30, [sp], #80
  963fc0:	d65f03c0 	ret
  963fc4:	52800016 	mov	w22, #0x0                   	// #0
  963fc8:	2a1603e0 	mov	w0, w22
  963fcc:	a9425bf5 	ldp	x21, x22, [sp, #32]
  963fd0:	a8c57bfd 	ldp	x29, x30, [sp], #80
  963fd4:	d65f03c0 	ret

0000000000963fd8 <gicv3_ppi_sgi_config_defaults>:
  963fd8:	d2803001 	mov	x1, #0x180                 	// #384
  963fdc:	12800002 	mov	w2, #0xffffffff            	// #-1
  963fe0:	f2a00021 	movk	x1, #0x1, lsl #16
  963fe4:	b8216802 	str	w2, [x0, x1]
  963fe8:	b9400001 	ldr	w1, [x0]
  963fec:	371fffe1 	tbnz	w1, #3, 963fe8 <gicv3_ppi_sgi_config_defaults+0x10>
  963ff0:	d2801004 	mov	x4, #0x80                  	// #128
  963ff4:	91404001 	add	x1, x0, #0x10, lsl #12
  963ff8:	91404003 	add	x3, x0, #0x10, lsl #12
  963ffc:	f2a00024 	movk	x4, #0x1, lsl #16
  964000:	91100021 	add	x1, x1, #0x400
  964004:	91108063 	add	x3, x3, #0x420
  964008:	12800005 	mov	w5, #0xffffffff            	// #-1
  96400c:	3201c3e2 	mov	w2, #0x80808080            	// #-2139062144
  964010:	b8246805 	str	w5, [x0, x4]
  964014:	d503201f 	nop
  964018:	b8004422 	str	w2, [x1], #4
  96401c:	eb01007f 	cmp	x3, x1
  964020:	54ffffc1 	b.ne	964018 <gicv3_ppi_sgi_config_defaults+0x40>  // b.any
  964024:	d2818081 	mov	x1, #0xc04                 	// #3076
  964028:	f2a00021 	movk	x1, #0x1, lsl #16
  96402c:	b821681f 	str	wzr, [x0, x1]
  964030:	d65f03c0 	ret
  964034:	00000000 	.inst	0x00000000 ; undefined

0000000000964038 <gicv3_secure_ppi_sgi_config_props>:
  964038:	aa0003e4 	mov	x4, x0
  96403c:	34000802 	cbz	w2, 96413c <gicv3_secure_ppi_sgi_config_props+0x104>
  964040:	51000442 	sub	w2, w2, #0x1
  964044:	9140400d 	add	x13, x0, #0x10, lsl #12
  964048:	91001026 	add	x6, x1, #0x4
  96404c:	d2801009 	mov	x9, #0x80                  	// #128
  964050:	d281a008 	mov	x8, #0xd00                 	// #3328
  964054:	d280200c 	mov	x12, #0x100                 	// #256
  964058:	d281808b 	mov	x11, #0xc04                 	// #3076
  96405c:	911001ad 	add	x13, x13, #0x400
  964060:	8b2248c6 	add	x6, x6, w2, uxtw #2
  964064:	52800000 	mov	w0, #0x0                   	// #0
  964068:	f2a00029 	movk	x9, #0x1, lsl #16
  96406c:	52800027 	mov	w7, #0x1                   	// #1
  964070:	f2a00028 	movk	x8, #0x1, lsl #16
  964074:	f2a0002c 	movk	x12, #0x1, lsl #16
  964078:	f2a0002b 	movk	x11, #0x1, lsl #16
  96407c:	5280006a 	mov	w10, #0x3                   	// #3
  964080:	79400023 	ldrh	w3, [x1]
  964084:	12002462 	and	w2, w3, #0x3ff
  964088:	71007c5f 	cmp	w2, #0x1f
  96408c:	d3402463 	ubfx	x3, x3, #0, #10
  964090:	1ac220e2 	lsl	w2, w7, w2
  964094:	54000428 	b.hi	964118 <gicv3_secure_ppi_sgi_config_props+0xe0>  // b.pmore
  964098:	b8696885 	ldr	w5, [x4, x9]
  96409c:	2a2203ee 	mvn	w14, w2
  9640a0:	3940082f 	ldrb	w15, [x1, #2]
  9640a4:	0a2200a5 	bic	w5, w5, w2
  9640a8:	b8296885 	str	w5, [x4, x9]
  9640ac:	721e05ff 	tst	w15, #0xc
  9640b0:	540003c1 	b.ne	964128 <gicv3_secure_ppi_sgi_config_props+0xf0>  // b.any
  9640b4:	b8686885 	ldr	w5, [x4, x8]
  9640b8:	321e0000 	orr	w0, w0, #0x4
  9640bc:	2a050042 	orr	w2, w2, w5
  9640c0:	b8286882 	str	w2, [x4, x8]
  9640c4:	b9400022 	ldr	w2, [x1]
  9640c8:	92403c63 	and	x3, x3, #0xffff
  9640cc:	d34a4442 	ubfx	x2, x2, #10, #8
  9640d0:	382369a2 	strb	w2, [x13, x3]
  9640d4:	79400022 	ldrh	w2, [x1]
  9640d8:	12002442 	and	w2, w2, #0x3ff
  9640dc:	110fc045 	add	w5, w2, #0x3f0
  9640e0:	531f0c4f 	ubfiz	w15, w2, #1, #4
  9640e4:	120024a5 	and	w5, w5, #0x3ff
  9640e8:	71003cbf 	cmp	w5, #0xf
  9640ec:	1ac220e2 	lsl	w2, w7, w2
  9640f0:	1acf214e 	lsl	w14, w10, w15
  9640f4:	54000108 	b.hi	964114 <gicv3_secure_ppi_sgi_config_props+0xdc>  // b.pmore
  9640f8:	39400823 	ldrb	w3, [x1, #2]
  9640fc:	b86b6885 	ldr	w5, [x4, x11]
  964100:	d3441463 	ubfx	x3, x3, #4, #2
  964104:	0a2e00ae 	bic	w14, w5, w14
  964108:	1acf2063 	lsl	w3, w3, w15
  96410c:	2a0e0063 	orr	w3, w3, w14
  964110:	b82b6883 	str	w3, [x4, x11]
  964114:	b82c6882 	str	w2, [x4, x12]
  964118:	91001021 	add	x1, x1, #0x4
  96411c:	eb06003f 	cmp	x1, x6
  964120:	54fffb01 	b.ne	964080 <gicv3_secure_ppi_sgi_config_props+0x48>  // b.any
  964124:	d65f03c0 	ret
  964128:	b8686882 	ldr	w2, [x4, x8]
  96412c:	32000000 	orr	w0, w0, #0x1
  964130:	0a0201ce 	and	w14, w14, w2
  964134:	b828688e 	str	w14, [x4, x8]
  964138:	17ffffe3 	b	9640c4 <gicv3_secure_ppi_sgi_config_props+0x8c>
  96413c:	52800000 	mov	w0, #0x0                   	// #0
  964140:	d65f03c0 	ret
  964144:	00000000 	.inst	0x00000000 ; undefined

0000000000964148 <arm_gicv3_distif_pre_save>:
  964148:	b0000061 	adrp	x1, 971000 <imx_gicv3_ctx+0x24d0>
  96414c:	f9424421 	ldr	x1, [x1, #1160]
  964150:	f9401021 	ldr	x1, [x1, #32]
  964154:	f8605820 	ldr	x0, [x1, w0, uxtw #3]
  964158:	91005001 	add	x1, x0, #0x14
  96415c:	b9401402 	ldr	w2, [x0, #20]
  964160:	32000042 	orr	w2, w2, #0x1
  964164:	b9001402 	str	w2, [x0, #20]
  964168:	b9400020 	ldr	w0, [x1]
  96416c:	36ffffe0 	tbz	w0, #31, 964168 <arm_gicv3_distif_pre_save+0x20>
  964170:	d65f03c0 	ret
  964174:	00000000 	.inst	0x00000000 ; undefined

0000000000964178 <arm_gicv3_distif_post_restore>:
  964178:	b0000061 	adrp	x1, 971000 <imx_gicv3_ctx+0x24d0>
  96417c:	f9424421 	ldr	x1, [x1, #1160]
  964180:	f9401021 	ldr	x1, [x1, #32]
  964184:	f8605820 	ldr	x0, [x1, w0, uxtw #3]
  964188:	91005001 	add	x1, x0, #0x14
  96418c:	b9401402 	ldr	w2, [x0, #20]
  964190:	360000c2 	tbz	w2, #0, 9641a8 <arm_gicv3_distif_post_restore+0x30>
  964194:	b9401402 	ldr	w2, [x0, #20]
  964198:	121f7842 	and	w2, w2, #0xfffffffe
  96419c:	b9001402 	str	w2, [x0, #20]
  9641a0:	b9400020 	ldr	w0, [x1]
  9641a4:	37ffffe0 	tbnz	w0, #31, 9641a0 <arm_gicv3_distif_post_restore+0x28>
  9641a8:	d65f03c0 	ret
  9641ac:	00000000 	.inst	0x00000000 ; undefined

00000000009641b0 <gicv3_distif_pre_save>:
  9641b0:	17ffffe6 	b	964148 <arm_gicv3_distif_pre_save>
  9641b4:	00000000 	.inst	0x00000000 ; undefined

00000000009641b8 <gicv3_distif_post_restore>:
  9641b8:	17fffff0 	b	964178 <arm_gicv3_distif_post_restore>
  9641bc:	00000000 	.inst	0x00000000 ; undefined

00000000009641c0 <gicv3_driver_init>:
  9641c0:	a9be7bfd 	stp	x29, x30, [sp, #-32]!
  9641c4:	d29ffd01 	mov	x1, #0xffe8                	// #65512
  9641c8:	910003fd 	mov	x29, sp
  9641cc:	a90153f3 	stp	x19, x20, [sp, #16]
  9641d0:	aa0003f3 	mov	x19, x0
  9641d4:	f9400000 	ldr	x0, [x0]
  9641d8:	f9400662 	ldr	x2, [x19, #8]
  9641dc:	b8616801 	ldr	w1, [x0, x1]
  9641e0:	b9400000 	ldr	w0, [x0]
  9641e4:	b5000162 	cbnz	x2, 964210 <gicv3_driver_init+0x50>
  9641e8:	b0000074 	adrp	x20, 971000 <imx_gicv3_ctx+0x24d0>
  9641ec:	d2800101 	mov	x1, #0x8                   	// #8
  9641f0:	91122280 	add	x0, x20, #0x488
  9641f4:	f9024693 	str	x19, [x20, #1160]
  9641f8:	94001235 	bl	968acc <flush_dcache_range>
  9641fc:	f9424680 	ldr	x0, [x20, #1160]
  964200:	d2800601 	mov	x1, #0x30                  	// #48
  964204:	a94153f3 	ldp	x19, x20, [sp, #16]
  964208:	a8c27bfd 	ldp	x29, x30, [sp], #32
  96420c:	14001230 	b	968acc <flush_dcache_range>
  964210:	a9420e60 	ldp	x0, x3, [x19, #32]
  964214:	b9401e61 	ldr	w1, [x19, #28]
  964218:	97fffee2 	bl	963da0 <gicv3_rdistif_base_addrs_probe>
  96421c:	f9401260 	ldr	x0, [x19, #32]
  964220:	b9401e61 	ldr	w1, [x19, #28]
  964224:	d37df021 	lsl	x1, x1, #3
  964228:	94001229 	bl	968acc <flush_dcache_range>
  96422c:	17ffffef 	b	9641e8 <gicv3_driver_init+0x28>

0000000000964230 <gicv3_distif_init>:
  964230:	a9be7bfd 	stp	x29, x30, [sp, #-32]!
  964234:	910003fd 	mov	x29, sp
  964238:	f9000bf3 	str	x19, [sp, #16]
  96423c:	b0000073 	adrp	x19, 971000 <imx_gicv3_ctx+0x24d0>
  964240:	f9424660 	ldr	x0, [x19, #1160]
  964244:	f9400000 	ldr	x0, [x0]
  964248:	b9400001 	ldr	w1, [x0]
  96424c:	121d7021 	and	w1, w1, #0xfffffff8
  964250:	b9000001 	str	w1, [x0]
  964254:	d503201f 	nop
  964258:	b9400001 	ldr	w1, [x0]
  96425c:	37ffffe1 	tbnz	w1, #31, 964258 <gicv3_distif_init+0x28>
  964260:	b9400001 	ldr	w1, [x0]
  964264:	321c0421 	orr	w1, w1, #0x30
  964268:	b9000001 	str	w1, [x0]
  96426c:	d503201f 	nop
  964270:	b9400001 	ldr	w1, [x0]
  964274:	37ffffe1 	tbnz	w1, #31, 964270 <gicv3_distif_init+0x40>
  964278:	97fffee6 	bl	963e10 <gicv3_spis_config_defaults>
  96427c:	f9424662 	ldr	x2, [x19, #1160]
  964280:	f9400040 	ldr	x0, [x2]
  964284:	f9400841 	ldr	x1, [x2, #16]
  964288:	b9401842 	ldr	w2, [x2, #24]
  96428c:	97ffff07 	bl	963ea8 <gicv3_secure_spis_config_props>
  964290:	f9424661 	ldr	x1, [x19, #1160]
  964294:	f9400021 	ldr	x1, [x1]
  964298:	b9400022 	ldr	w2, [x1]
  96429c:	2a020000 	orr	w0, w0, w2
  9642a0:	b9000020 	str	w0, [x1]
  9642a4:	d503201f 	nop
  9642a8:	b9400020 	ldr	w0, [x1]
  9642ac:	37ffffe0 	tbnz	w0, #31, 9642a8 <gicv3_distif_init+0x78>
  9642b0:	f9400bf3 	ldr	x19, [sp, #16]
  9642b4:	a8c27bfd 	ldp	x29, x30, [sp], #32
  9642b8:	d65f03c0 	ret
  9642bc:	00000000 	.inst	0x00000000 ; undefined

00000000009642c0 <gicv3_rdistif_on>:
  9642c0:	d65f03c0 	ret
  9642c4:	00000000 	.inst	0x00000000 ; undefined

00000000009642c8 <gicv3_rdistif_init>:
  9642c8:	a9bd7bfd 	stp	x29, x30, [sp, #-48]!
  9642cc:	910003fd 	mov	x29, sp
  9642d0:	a90153f3 	stp	x19, x20, [sp, #16]
  9642d4:	b0000073 	adrp	x19, 971000 <imx_gicv3_ctx+0x24d0>
  9642d8:	2a0003f4 	mov	w20, w0
  9642dc:	f9424661 	ldr	x1, [x19, #1160]
  9642e0:	f9400021 	ldr	x1, [x1]
  9642e4:	f90013f5 	str	x21, [sp, #32]
  9642e8:	b9400035 	ldr	w21, [x1]
  9642ec:	97fffff5 	bl	9642c0 <gicv3_rdistif_on>
  9642f0:	f9424660 	ldr	x0, [x19, #1160]
  9642f4:	f9401000 	ldr	x0, [x0, #32]
  9642f8:	f8745814 	ldr	x20, [x0, w20, uxtw #3]
  9642fc:	aa1403e0 	mov	x0, x20
  964300:	97ffff36 	bl	963fd8 <gicv3_ppi_sgi_config_defaults>
  964304:	f9424662 	ldr	x2, [x19, #1160]
  964308:	aa1403e0 	mov	x0, x20
  96430c:	f9400841 	ldr	x1, [x2, #16]
  964310:	b9401842 	ldr	w2, [x2, #24]
  964314:	97ffff49 	bl	964038 <gicv3_secure_ppi_sgi_config_props>
  964318:	6a35001f 	bics	wzr, w0, w21
  96431c:	54000120 	b.eq	964340 <gicv3_rdistif_init+0x78>  // b.none
  964320:	f9424661 	ldr	x1, [x19, #1160]
  964324:	f9400021 	ldr	x1, [x1]
  964328:	b9400022 	ldr	w2, [x1]
  96432c:	2a020000 	orr	w0, w0, w2
  964330:	b9000020 	str	w0, [x1]
  964334:	d503201f 	nop
  964338:	b9400020 	ldr	w0, [x1]
  96433c:	37ffffe0 	tbnz	w0, #31, 964338 <gicv3_rdistif_init+0x70>
  964340:	a94153f3 	ldp	x19, x20, [sp, #16]
  964344:	f94013f5 	ldr	x21, [sp, #32]
  964348:	a8c37bfd 	ldp	x29, x30, [sp], #48
  96434c:	d65f03c0 	ret

0000000000964350 <gicv3_cpuif_enable>:
  964350:	a9bf7bfd 	stp	x29, x30, [sp, #-16]!
  964354:	b0000061 	adrp	x1, 971000 <imx_gicv3_ctx+0x24d0>
  964358:	910003fd 	mov	x29, sp
  96435c:	f9424421 	ldr	x1, [x1, #1160]
  964360:	f9401021 	ldr	x1, [x1, #32]
  964364:	f8605820 	ldr	x0, [x1, w0, uxtw #3]
  964368:	97fffe76 	bl	963d40 <gicv3_rdistif_mark_core_awake>
  96436c:	d53ecca0 	mrs	x0, s3_6_c12_c12_5
  964370:	b2400c00 	orr	x0, x0, #0xf
  964374:	d51ecca0 	msr	s3_6_c12_c12_5, x0
  964378:	d53e1100 	mrs	x0, scr_el3
  96437c:	32000001 	orr	w1, w0, #0x1
  964380:	d51e1101 	msr	scr_el3, x1
  964384:	d5033fdf 	isb
  964388:	d53cc9a1 	mrs	x1, s3_4_c12_c9_5
  96438c:	b2400c21 	orr	x1, x1, #0xf
  964390:	d51cc9a1 	msr	s3_4_c12_c9_5, x1
  964394:	d2800021 	mov	x1, #0x1                   	// #1
  964398:	d518cca1 	msr	s3_0_c12_c12_5, x1
  96439c:	d5033fdf 	isb
  9643a0:	927f7800 	and	x0, x0, #0xfffffffe
  9643a4:	d51e1100 	msr	scr_el3, x0
  9643a8:	d5033fdf 	isb
  9643ac:	d518cca1 	msr	s3_0_c12_c12_5, x1
  9643b0:	d5033fdf 	isb
  9643b4:	d2801fe0 	mov	x0, #0xff                  	// #255
  9643b8:	d5184600 	msr	s3_0_c4_c6_0, x0
  9643bc:	d518ccc1 	msr	s3_0_c12_c12_6, x1
  9643c0:	d53ecce0 	mrs	x0, s3_6_c12_c12_7
  9643c4:	b27f0000 	orr	x0, x0, #0x2
  9643c8:	d51ecce0 	msr	s3_6_c12_c12_7, x0
  9643cc:	d5033fdf 	isb
  9643d0:	a8c17bfd 	ldp	x29, x30, [sp], #16
  9643d4:	d65f03c0 	ret

00000000009643d8 <gicv3_cpuif_disable>:
  9643d8:	d53ecca1 	mrs	x1, s3_6_c12_c12_5
  9643dc:	b27f0421 	orr	x1, x1, #0x6
  9643e0:	d51ecca1 	msr	s3_6_c12_c12_5, x1
  9643e4:	d538ccc1 	mrs	x1, s3_0_c12_c12_6
  9643e8:	927f7821 	and	x1, x1, #0xfffffffe
  9643ec:	d518ccc1 	msr	s3_0_c12_c12_6, x1
  9643f0:	d53ecce1 	mrs	x1, s3_6_c12_c12_7
  9643f4:	927e7421 	and	x1, x1, #0xfffffffc
  9643f8:	d51ecce1 	msr	s3_6_c12_c12_7, x1
  9643fc:	d5033fdf 	isb
  964400:	b0000061 	adrp	x1, 971000 <imx_gicv3_ctx+0x24d0>
  964404:	f9424421 	ldr	x1, [x1, #1160]
  964408:	f9401021 	ldr	x1, [x1, #32]
  96440c:	f8605820 	ldr	x0, [x1, w0, uxtw #3]
  964410:	17fffe5c 	b	963d80 <gicv3_rdistif_mark_core_asleep>
  964414:	00000000 	.inst	0x00000000 ; undefined

0000000000964418 <gicv3_get_pending_interrupt_type>:
  964418:	d538c840 	mrs	x0, s3_0_c12_c8_2
  96441c:	12005c00 	and	w0, w0, #0xffffff
  964420:	d65f03c0 	ret
  964424:	00000000 	.inst	0x00000000 ; undefined

0000000000964428 <gicv3_rdistif_save>:
  964428:	a9bd7bfd 	stp	x29, x30, [sp, #-48]!
  96442c:	b0000062 	adrp	x2, 971000 <imx_gicv3_ctx+0x24d0>
  964430:	910003fd 	mov	x29, sp
  964434:	a9025bf5 	stp	x21, x22, [sp, #32]
  964438:	2a0003f6 	mov	w22, w0
  96443c:	aa0103f5 	mov	x21, x1
  964440:	f9424440 	ldr	x0, [x2, #1160]
  964444:	a90153f3 	stp	x19, x20, [sp, #16]
  964448:	f9401000 	ldr	x0, [x0, #32]
  96444c:	f8765814 	ldr	x20, [x0, w22, uxtw #3]
  964450:	b9400282 	ldr	w2, [x20]
  964454:	121d0053 	and	w19, w2, #0x8
  964458:	371fffc2 	tbnz	w2, #3, 964450 <gicv3_rdistif_save+0x28>
  96445c:	b9400280 	ldr	w0, [x20]
  964460:	d2801001 	mov	x1, #0x80                  	// #128
  964464:	f9403a82 	ldr	x2, [x20, #112]
  964468:	f2a00021 	movk	x1, #0x1, lsl #16
  96446c:	f90002a2 	str	x2, [x21]
  964470:	d2804005 	mov	x5, #0x200                 	// #512
  964474:	b90012a0 	str	w0, [x21, #16]
  964478:	d2802000 	mov	x0, #0x100                 	// #256
  96447c:	f9403e86 	ldr	x6, [x20, #120]
  964480:	f2a00020 	movk	x0, #0x1, lsl #16
  964484:	b8616a81 	ldr	w1, [x20, x1]
  964488:	f2a00025 	movk	x5, #0x1, lsl #16
  96448c:	b90016a1 	str	w1, [x21, #20]
  964490:	d2806004 	mov	x4, #0x300                 	// #768
  964494:	f2a00024 	movk	x4, #0x1, lsl #16
  964498:	d2818003 	mov	x3, #0xc00                 	// #3072
  96449c:	b8606a87 	ldr	w7, [x20, x0]
  9644a0:	f2a00023 	movk	x3, #0x1, lsl #16
  9644a4:	b9001aa7 	str	w7, [x21, #24]
  9644a8:	d2818082 	mov	x2, #0xc04                 	// #3076
  9644ac:	f2a00022 	movk	x2, #0x1, lsl #16
  9644b0:	d281a001 	mov	x1, #0xd00                 	// #3328
  9644b4:	b8656a85 	ldr	w5, [x20, x5]
  9644b8:	f2a00021 	movk	x1, #0x1, lsl #16
  9644bc:	b9001ea5 	str	w5, [x21, #28]
  9644c0:	91340000 	add	x0, x0, #0xd00
  9644c4:	f90006a6 	str	x6, [x21, #8]
  9644c8:	b8646a84 	ldr	w4, [x20, x4]
  9644cc:	b90022a4 	str	w4, [x21, #32]
  9644d0:	b8636a83 	ldr	w3, [x20, x3]
  9644d4:	b90046a3 	str	w3, [x21, #68]
  9644d8:	b8626a82 	ldr	w2, [x20, x2]
  9644dc:	b9004aa2 	str	w2, [x21, #72]
  9644e0:	b8616a81 	ldr	w1, [x20, x1]
  9644e4:	b9004ea1 	str	w1, [x21, #76]
  9644e8:	b8606a80 	ldr	w0, [x20, x0]
  9644ec:	b90052a0 	str	w0, [x21, #80]
  9644f0:	2a1303e1 	mov	w1, w19
  9644f4:	aa1403e0 	mov	x0, x20
  9644f8:	97fffe06 	bl	963d10 <gicr_read_ipriorityr>
  9644fc:	927e7662 	and	x2, x19, #0xfffffffc
  964500:	11001273 	add	w19, w19, #0x4
  964504:	8b0202a2 	add	x2, x21, x2
  964508:	7100827f 	cmp	w19, #0x20
  96450c:	b9002440 	str	w0, [x2, #36]
  964510:	54ffff01 	b.ne	9644f0 <gicv3_rdistif_save+0xc8>  // b.any
  964514:	2a1603e0 	mov	w0, w22
  964518:	a94153f3 	ldp	x19, x20, [sp, #16]
  96451c:	a9425bf5 	ldp	x21, x22, [sp, #32]
  964520:	a8c37bfd 	ldp	x29, x30, [sp], #48
  964524:	17ffff23 	b	9641b0 <gicv3_distif_pre_save>

0000000000964528 <gicv3_rdistif_init_restore>:
  964528:	a9bd7bfd 	stp	x29, x30, [sp, #-48]!
  96452c:	b0000062 	adrp	x2, 971000 <imx_gicv3_ctx+0x24d0>
  964530:	910003fd 	mov	x29, sp
  964534:	f9424442 	ldr	x2, [x2, #1160]
  964538:	f90013f5 	str	x21, [sp, #32]
  96453c:	aa0103f5 	mov	x21, x1
  964540:	a90153f3 	stp	x19, x20, [sp, #16]
  964544:	2a0003f4 	mov	w20, w0
  964548:	f9401041 	ldr	x1, [x2, #32]
  96454c:	f8745833 	ldr	x19, [x1, w20, uxtw #3]
  964550:	97ffff5c 	bl	9642c0 <gicv3_rdistif_on>
  964554:	2a1403e0 	mov	w0, w20
  964558:	97ffff18 	bl	9641b8 <gicv3_distif_post_restore>
  96455c:	d2803000 	mov	x0, #0x180                 	// #384
  964560:	12800001 	mov	w1, #0xffffffff            	// #-1
  964564:	f2a00020 	movk	x0, #0x1, lsl #16
  964568:	b8206a61 	str	w1, [x19, x0]
  96456c:	d503201f 	nop
  964570:	b9400260 	ldr	w0, [x19]
  964574:	121d0014 	and	w20, w0, #0x8
  964578:	371fffc0 	tbnz	w0, #3, 964570 <gicv3_rdistif_init_restore+0x48>
  96457c:	b94012a0 	ldr	w0, [x21, #16]
  964580:	d2801001 	mov	x1, #0x80                  	// #128
  964584:	f94002a2 	ldr	x2, [x21]
  964588:	121f7800 	and	w0, w0, #0xfffffffe
  96458c:	b9000260 	str	w0, [x19]
  964590:	f2a00021 	movk	x1, #0x1, lsl #16
  964594:	f9003a62 	str	x2, [x19, #112]
  964598:	b94016a0 	ldr	w0, [x21, #20]
  96459c:	f94006a2 	ldr	x2, [x21, #8]
  9645a0:	f9003e62 	str	x2, [x19, #120]
  9645a4:	b8216a60 	str	w0, [x19, x1]
  9645a8:	927e7682 	and	x2, x20, #0xfffffffc
  9645ac:	2a1403e1 	mov	w1, w20
  9645b0:	8b0202a2 	add	x2, x21, x2
  9645b4:	11001294 	add	w20, w20, #0x4
  9645b8:	aa1303e0 	mov	x0, x19
  9645bc:	b9402442 	ldr	w2, [x2, #36]
  9645c0:	97fffdda 	bl	963d28 <gicr_write_ipriorityr>
  9645c4:	7100829f 	cmp	w20, #0x20
  9645c8:	54ffff01 	b.ne	9645a8 <gicv3_rdistif_init_restore+0x80>  // b.any
  9645cc:	d2818000 	mov	x0, #0xc00                 	// #3072
  9645d0:	b94046a1 	ldr	w1, [x21, #68]
  9645d4:	f2a00020 	movk	x0, #0x1, lsl #16
  9645d8:	d2818084 	mov	x4, #0xc04                 	// #3076
  9645dc:	f2a00024 	movk	x4, #0x1, lsl #16
  9645e0:	d281a003 	mov	x3, #0xd00                 	// #3328
  9645e4:	b8206a61 	str	w1, [x19, x0]
  9645e8:	f2a00023 	movk	x3, #0x1, lsl #16
  9645ec:	d281c002 	mov	x2, #0xe00                 	// #3584
  9645f0:	d2804001 	mov	x1, #0x200                 	// #512
  9645f4:	b9404aa5 	ldr	w5, [x21, #72]
  9645f8:	f2a00022 	movk	x2, #0x1, lsl #16
  9645fc:	b8246a65 	str	w5, [x19, x4]
  964600:	f2a00021 	movk	x1, #0x1, lsl #16
  964604:	d2806000 	mov	x0, #0x300                 	// #768
  964608:	b9404ea4 	ldr	w4, [x21, #76]
  96460c:	f2a00020 	movk	x0, #0x1, lsl #16
  964610:	b8236a64 	str	w4, [x19, x3]
  964614:	b94052a3 	ldr	w3, [x21, #80]
  964618:	b8226a63 	str	w3, [x19, x2]
  96461c:	b9401ea2 	ldr	w2, [x21, #28]
  964620:	b8216a62 	str	w2, [x19, x1]
  964624:	b94022a1 	ldr	w1, [x21, #32]
  964628:	b8206a61 	str	w1, [x19, x0]
  96462c:	d503201f 	nop
  964630:	b9400260 	ldr	w0, [x19]
  964634:	37ffffe0 	tbnz	w0, #31, 964630 <gicv3_rdistif_init_restore+0x108>
  964638:	d2802000 	mov	x0, #0x100                 	// #256
  96463c:	b9401aa1 	ldr	w1, [x21, #24]
  964640:	f2a00020 	movk	x0, #0x1, lsl #16
  964644:	b8206a61 	str	w1, [x19, x0]
  964648:	b94012a0 	ldr	w0, [x21, #16]
  96464c:	b9000260 	str	w0, [x19]
  964650:	b9400260 	ldr	w0, [x19]
  964654:	371fffe0 	tbnz	w0, #3, 964650 <gicv3_rdistif_init_restore+0x128>
  964658:	a94153f3 	ldp	x19, x20, [sp, #16]
  96465c:	f94013f5 	ldr	x21, [sp, #32]
  964660:	a8c37bfd 	ldp	x29, x30, [sp], #48
  964664:	d65f03c0 	ret

0000000000964668 <gicv3_distif_save>:
  964668:	a9bd7bfd 	stp	x29, x30, [sp, #-48]!
  96466c:	b0000061 	adrp	x1, 971000 <imx_gicv3_ctx+0x24d0>
  964670:	910003fd 	mov	x29, sp
  964674:	a90153f3 	stp	x19, x20, [sp, #16]
  964678:	aa0003f4 	mov	x20, x0
  96467c:	f9424420 	ldr	x0, [x1, #1160]
  964680:	a9025bf5 	stp	x21, x22, [sp, #32]
  964684:	52807f95 	mov	w21, #0x3fc                 	// #1020
  964688:	f9400013 	ldr	x19, [x0]
  96468c:	b9400661 	ldr	w1, [x19, #4]
  964690:	531b1021 	ubfiz	w1, w1, #5, #5
  964694:	11008021 	add	w1, w1, #0x20
  964698:	6b15003f 	cmp	w1, w21
  96469c:	1a959035 	csel	w21, w1, w21, ls  // ls = plast
  9646a0:	b9400260 	ldr	w0, [x19]
  9646a4:	37ffffe0 	tbnz	w0, #31, 9646a0 <gicv3_distif_save+0x38>
  9646a8:	b9400260 	ldr	w0, [x19]
  9646ac:	7100803f 	cmp	w1, #0x20
  9646b0:	b91ee280 	str	w0, [x20, #7904]
  9646b4:	52800416 	mov	w22, #0x20                  	// #32
  9646b8:	54000d80 	b.eq	964868 <gicv3_distif_save+0x200>  // b.none
  9646bc:	d503201f 	nop
  9646c0:	2a1603e1 	mov	w1, w22
  9646c4:	aa1303e0 	mov	x0, x19
  9646c8:	9400010c 	bl	964af8 <gicd_read_igroupr>
  9646cc:	510082c2 	sub	w2, w22, #0x20
  9646d0:	110082d6 	add	w22, w22, #0x20
  9646d4:	6b1502df 	cmp	w22, w21
  9646d8:	53057c42 	lsr	w2, w2, #5
  9646dc:	8b020a82 	add	x2, x20, x2, lsl #2
  9646e0:	b91ee440 	str	w0, [x2, #7908]
  9646e4:	54fffee3 	b.cc	9646c0 <gicv3_distif_save+0x58>  // b.lo, b.ul, b.last
  9646e8:	52800416 	mov	w22, #0x20                  	// #32
  9646ec:	d503201f 	nop
  9646f0:	2a1603e1 	mov	w1, w22
  9646f4:	aa1303e0 	mov	x0, x19
  9646f8:	94000106 	bl	964b10 <gicd_read_isenabler>
  9646fc:	510082c2 	sub	w2, w22, #0x20
  964700:	110082d6 	add	w22, w22, #0x20
  964704:	6b1502df 	cmp	w22, w21
  964708:	53057c42 	lsr	w2, w2, #5
  96470c:	911f6042 	add	x2, x2, #0x7d8
  964710:	b8227a80 	str	w0, [x20, x2, lsl #2]
  964714:	54fffee3 	b.cc	9646f0 <gicv3_distif_save+0x88>  // b.lo, b.ul, b.last
  964718:	52800416 	mov	w22, #0x20                  	// #32
  96471c:	d503201f 	nop
  964720:	2a1603e1 	mov	w1, w22
  964724:	aa1303e0 	mov	x0, x19
  964728:	94000100 	bl	964b28 <gicd_read_ispendr>
  96472c:	510082c2 	sub	w2, w22, #0x20
  964730:	110082d6 	add	w22, w22, #0x20
  964734:	6b1502df 	cmp	w22, w21
  964738:	53057c42 	lsr	w2, w2, #5
  96473c:	8b020a82 	add	x2, x20, x2, lsl #2
  964740:	b91fdc40 	str	w0, [x2, #8156]
  964744:	54fffee3 	b.cc	964720 <gicv3_distif_save+0xb8>  // b.lo, b.ul, b.last
